; Listing generated by Microsoft (R) Optimizing Compiler Version 18.00.40629.0 

	TITLE	D:\USER\Desktop\glm-0.9.8.5\glm\glm\detail\glm.cpp
	.686P
	.XMM
	include listing.inc
	.model	flat

INCLUDELIB MSVCRT

PUBLIC	?has_denorm@_Num_base@std@@2W4float_denorm_style@2@B ; std::_Num_base::has_denorm
PUBLIC	?has_denorm_loss@_Num_base@std@@2_NB		; std::_Num_base::has_denorm_loss
PUBLIC	?has_infinity@_Num_base@std@@2_NB		; std::_Num_base::has_infinity
PUBLIC	?has_quiet_NaN@_Num_base@std@@2_NB		; std::_Num_base::has_quiet_NaN
PUBLIC	?has_signaling_NaN@_Num_base@std@@2_NB		; std::_Num_base::has_signaling_NaN
PUBLIC	?is_bounded@_Num_base@std@@2_NB			; std::_Num_base::is_bounded
PUBLIC	?is_exact@_Num_base@std@@2_NB			; std::_Num_base::is_exact
PUBLIC	?is_iec559@_Num_base@std@@2_NB			; std::_Num_base::is_iec559
PUBLIC	?is_integer@_Num_base@std@@2_NB			; std::_Num_base::is_integer
PUBLIC	?is_modulo@_Num_base@std@@2_NB			; std::_Num_base::is_modulo
PUBLIC	?is_signed@_Num_base@std@@2_NB			; std::_Num_base::is_signed
PUBLIC	?is_specialized@_Num_base@std@@2_NB		; std::_Num_base::is_specialized
PUBLIC	?tinyness_before@_Num_base@std@@2_NB		; std::_Num_base::tinyness_before
PUBLIC	?traps@_Num_base@std@@2_NB			; std::_Num_base::traps
PUBLIC	?round_style@_Num_base@std@@2W4float_round_style@2@B ; std::_Num_base::round_style
PUBLIC	?digits@_Num_base@std@@2HB			; std::_Num_base::digits
PUBLIC	?digits10@_Num_base@std@@2HB			; std::_Num_base::digits10
PUBLIC	?max_digits10@_Num_base@std@@2HB		; std::_Num_base::max_digits10
PUBLIC	?max_exponent@_Num_base@std@@2HB		; std::_Num_base::max_exponent
PUBLIC	?max_exponent10@_Num_base@std@@2HB		; std::_Num_base::max_exponent10
PUBLIC	?min_exponent@_Num_base@std@@2HB		; std::_Num_base::min_exponent
PUBLIC	?min_exponent10@_Num_base@std@@2HB		; std::_Num_base::min_exponent10
PUBLIC	?radix@_Num_base@std@@2HB			; std::_Num_base::radix
PUBLIC	?is_bounded@_Num_int_base@std@@2_NB		; std::_Num_int_base::is_bounded
PUBLIC	?is_exact@_Num_int_base@std@@2_NB		; std::_Num_int_base::is_exact
PUBLIC	?is_integer@_Num_int_base@std@@2_NB		; std::_Num_int_base::is_integer
PUBLIC	?is_modulo@_Num_int_base@std@@2_NB		; std::_Num_int_base::is_modulo
PUBLIC	?is_specialized@_Num_int_base@std@@2_NB		; std::_Num_int_base::is_specialized
PUBLIC	?radix@_Num_int_base@std@@2HB			; std::_Num_int_base::radix
PUBLIC	?has_denorm@_Num_float_base@std@@2W4float_denorm_style@2@B ; std::_Num_float_base::has_denorm
PUBLIC	?has_denorm_loss@_Num_float_base@std@@2_NB	; std::_Num_float_base::has_denorm_loss
PUBLIC	?has_infinity@_Num_float_base@std@@2_NB		; std::_Num_float_base::has_infinity
PUBLIC	?has_quiet_NaN@_Num_float_base@std@@2_NB	; std::_Num_float_base::has_quiet_NaN
PUBLIC	?has_signaling_NaN@_Num_float_base@std@@2_NB	; std::_Num_float_base::has_signaling_NaN
PUBLIC	?is_bounded@_Num_float_base@std@@2_NB		; std::_Num_float_base::is_bounded
PUBLIC	?is_exact@_Num_float_base@std@@2_NB		; std::_Num_float_base::is_exact
PUBLIC	?is_iec559@_Num_float_base@std@@2_NB		; std::_Num_float_base::is_iec559
PUBLIC	?is_integer@_Num_float_base@std@@2_NB		; std::_Num_float_base::is_integer
PUBLIC	?is_modulo@_Num_float_base@std@@2_NB		; std::_Num_float_base::is_modulo
PUBLIC	?is_signed@_Num_float_base@std@@2_NB		; std::_Num_float_base::is_signed
PUBLIC	?is_specialized@_Num_float_base@std@@2_NB	; std::_Num_float_base::is_specialized
PUBLIC	?tinyness_before@_Num_float_base@std@@2_NB	; std::_Num_float_base::tinyness_before
PUBLIC	?traps@_Num_float_base@std@@2_NB		; std::_Num_float_base::traps
PUBLIC	?round_style@_Num_float_base@std@@2W4float_round_style@2@B ; std::_Num_float_base::round_style
PUBLIC	?radix@_Num_float_base@std@@2HB			; std::_Num_float_base::radix
PUBLIC	?is_signed@?$numeric_limits@D@std@@2_NB		; std::numeric_limits<char>::is_signed
PUBLIC	?digits@?$numeric_limits@D@std@@2HB		; std::numeric_limits<char>::digits
PUBLIC	?digits10@?$numeric_limits@D@std@@2HB		; std::numeric_limits<char>::digits10
PUBLIC	?is_signed@?$numeric_limits@_W@std@@2_NB	; std::numeric_limits<wchar_t>::is_signed
PUBLIC	?digits@?$numeric_limits@_W@std@@2HB		; std::numeric_limits<wchar_t>::digits
PUBLIC	?digits10@?$numeric_limits@_W@std@@2HB		; std::numeric_limits<wchar_t>::digits10
PUBLIC	?is_modulo@?$numeric_limits@_N@std@@2_NB	; std::numeric_limits<bool>::is_modulo
PUBLIC	?is_signed@?$numeric_limits@_N@std@@2_NB	; std::numeric_limits<bool>::is_signed
PUBLIC	?digits@?$numeric_limits@_N@std@@2HB		; std::numeric_limits<bool>::digits
PUBLIC	?digits10@?$numeric_limits@_N@std@@2HB		; std::numeric_limits<bool>::digits10
PUBLIC	?is_signed@?$numeric_limits@C@std@@2_NB		; std::numeric_limits<signed char>::is_signed
PUBLIC	?digits@?$numeric_limits@C@std@@2HB		; std::numeric_limits<signed char>::digits
PUBLIC	?digits10@?$numeric_limits@C@std@@2HB		; std::numeric_limits<signed char>::digits10
PUBLIC	?is_signed@?$numeric_limits@E@std@@2_NB		; std::numeric_limits<unsigned char>::is_signed
PUBLIC	?digits@?$numeric_limits@E@std@@2HB		; std::numeric_limits<unsigned char>::digits
PUBLIC	?digits10@?$numeric_limits@E@std@@2HB		; std::numeric_limits<unsigned char>::digits10
PUBLIC	?is_signed@?$numeric_limits@F@std@@2_NB		; std::numeric_limits<short>::is_signed
PUBLIC	?digits@?$numeric_limits@F@std@@2HB		; std::numeric_limits<short>::digits
PUBLIC	?digits10@?$numeric_limits@F@std@@2HB		; std::numeric_limits<short>::digits10
PUBLIC	?is_signed@?$numeric_limits@G@std@@2_NB		; std::numeric_limits<unsigned short>::is_signed
PUBLIC	?digits@?$numeric_limits@G@std@@2HB		; std::numeric_limits<unsigned short>::digits
PUBLIC	?digits10@?$numeric_limits@G@std@@2HB		; std::numeric_limits<unsigned short>::digits10
PUBLIC	?is_signed@?$numeric_limits@H@std@@2_NB		; std::numeric_limits<int>::is_signed
PUBLIC	?digits@?$numeric_limits@H@std@@2HB		; std::numeric_limits<int>::digits
PUBLIC	?digits10@?$numeric_limits@H@std@@2HB		; std::numeric_limits<int>::digits10
PUBLIC	?is_signed@?$numeric_limits@I@std@@2_NB		; std::numeric_limits<unsigned int>::is_signed
PUBLIC	?digits@?$numeric_limits@I@std@@2HB		; std::numeric_limits<unsigned int>::digits
PUBLIC	?digits10@?$numeric_limits@I@std@@2HB		; std::numeric_limits<unsigned int>::digits10
PUBLIC	?is_signed@?$numeric_limits@J@std@@2_NB		; std::numeric_limits<long>::is_signed
PUBLIC	?digits@?$numeric_limits@J@std@@2HB		; std::numeric_limits<long>::digits
PUBLIC	?digits10@?$numeric_limits@J@std@@2HB		; std::numeric_limits<long>::digits10
PUBLIC	?is_signed@?$numeric_limits@K@std@@2_NB		; std::numeric_limits<unsigned long>::is_signed
PUBLIC	?digits@?$numeric_limits@K@std@@2HB		; std::numeric_limits<unsigned long>::digits
PUBLIC	?digits10@?$numeric_limits@K@std@@2HB		; std::numeric_limits<unsigned long>::digits10
PUBLIC	?is_signed@?$numeric_limits@_J@std@@2_NB	; std::numeric_limits<__int64>::is_signed
PUBLIC	?digits@?$numeric_limits@_J@std@@2HB		; std::numeric_limits<__int64>::digits
PUBLIC	?digits10@?$numeric_limits@_J@std@@2HB		; std::numeric_limits<__int64>::digits10
PUBLIC	?is_signed@?$numeric_limits@_K@std@@2_NB	; std::numeric_limits<unsigned __int64>::is_signed
PUBLIC	?digits@?$numeric_limits@_K@std@@2HB		; std::numeric_limits<unsigned __int64>::digits
PUBLIC	?digits10@?$numeric_limits@_K@std@@2HB		; std::numeric_limits<unsigned __int64>::digits10
PUBLIC	?digits@?$numeric_limits@M@std@@2HB		; std::numeric_limits<float>::digits
PUBLIC	?digits10@?$numeric_limits@M@std@@2HB		; std::numeric_limits<float>::digits10
PUBLIC	?max_digits10@?$numeric_limits@M@std@@2HB	; std::numeric_limits<float>::max_digits10
PUBLIC	?max_exponent@?$numeric_limits@M@std@@2HB	; std::numeric_limits<float>::max_exponent
PUBLIC	?max_exponent10@?$numeric_limits@M@std@@2HB	; std::numeric_limits<float>::max_exponent10
PUBLIC	?min_exponent@?$numeric_limits@M@std@@2HB	; std::numeric_limits<float>::min_exponent
PUBLIC	?min_exponent10@?$numeric_limits@M@std@@2HB	; std::numeric_limits<float>::min_exponent10
PUBLIC	?digits@?$numeric_limits@N@std@@2HB		; std::numeric_limits<double>::digits
PUBLIC	?digits10@?$numeric_limits@N@std@@2HB		; std::numeric_limits<double>::digits10
PUBLIC	?max_digits10@?$numeric_limits@N@std@@2HB	; std::numeric_limits<double>::max_digits10
PUBLIC	?max_exponent@?$numeric_limits@N@std@@2HB	; std::numeric_limits<double>::max_exponent
PUBLIC	?max_exponent10@?$numeric_limits@N@std@@2HB	; std::numeric_limits<double>::max_exponent10
PUBLIC	?min_exponent@?$numeric_limits@N@std@@2HB	; std::numeric_limits<double>::min_exponent
PUBLIC	?min_exponent10@?$numeric_limits@N@std@@2HB	; std::numeric_limits<double>::min_exponent10
PUBLIC	?digits@?$numeric_limits@O@std@@2HB		; std::numeric_limits<long double>::digits
PUBLIC	?digits10@?$numeric_limits@O@std@@2HB		; std::numeric_limits<long double>::digits10
PUBLIC	?max_digits10@?$numeric_limits@O@std@@2HB	; std::numeric_limits<long double>::max_digits10
PUBLIC	?max_exponent@?$numeric_limits@O@std@@2HB	; std::numeric_limits<long double>::max_exponent
PUBLIC	?max_exponent10@?$numeric_limits@O@std@@2HB	; std::numeric_limits<long double>::max_exponent10
PUBLIC	?min_exponent@?$numeric_limits@O@std@@2HB	; std::numeric_limits<long double>::min_exponent
PUBLIC	?min_exponent10@?$numeric_limits@O@std@@2HB	; std::numeric_limits<long double>::min_exponent10
;	COMDAT ?min_exponent10@?$numeric_limits@O@std@@2HB
CONST	SEGMENT
?min_exponent10@?$numeric_limits@O@std@@2HB DD 0fffffecdH ; std::numeric_limits<long double>::min_exponent10
CONST	ENDS
;	COMDAT ?min_exponent@?$numeric_limits@O@std@@2HB
CONST	SEGMENT
?min_exponent@?$numeric_limits@O@std@@2HB DD 0fffffc03H	; std::numeric_limits<long double>::min_exponent
CONST	ENDS
;	COMDAT ?max_exponent10@?$numeric_limits@O@std@@2HB
CONST	SEGMENT
?max_exponent10@?$numeric_limits@O@std@@2HB DD 0134H	; std::numeric_limits<long double>::max_exponent10
CONST	ENDS
;	COMDAT ?max_exponent@?$numeric_limits@O@std@@2HB
CONST	SEGMENT
?max_exponent@?$numeric_limits@O@std@@2HB DD 0400H	; std::numeric_limits<long double>::max_exponent
CONST	ENDS
;	COMDAT ?max_digits10@?$numeric_limits@O@std@@2HB
CONST	SEGMENT
?max_digits10@?$numeric_limits@O@std@@2HB DD 011H	; std::numeric_limits<long double>::max_digits10
CONST	ENDS
;	COMDAT ?digits10@?$numeric_limits@O@std@@2HB
CONST	SEGMENT
?digits10@?$numeric_limits@O@std@@2HB DD 0fH		; std::numeric_limits<long double>::digits10
CONST	ENDS
;	COMDAT ?digits@?$numeric_limits@O@std@@2HB
CONST	SEGMENT
?digits@?$numeric_limits@O@std@@2HB DD 035H		; std::numeric_limits<long double>::digits
CONST	ENDS
;	COMDAT ?min_exponent10@?$numeric_limits@N@std@@2HB
CONST	SEGMENT
?min_exponent10@?$numeric_limits@N@std@@2HB DD 0fffffecdH ; std::numeric_limits<double>::min_exponent10
CONST	ENDS
;	COMDAT ?min_exponent@?$numeric_limits@N@std@@2HB
CONST	SEGMENT
?min_exponent@?$numeric_limits@N@std@@2HB DD 0fffffc03H	; std::numeric_limits<double>::min_exponent
CONST	ENDS
;	COMDAT ?max_exponent10@?$numeric_limits@N@std@@2HB
CONST	SEGMENT
?max_exponent10@?$numeric_limits@N@std@@2HB DD 0134H	; std::numeric_limits<double>::max_exponent10
CONST	ENDS
;	COMDAT ?max_exponent@?$numeric_limits@N@std@@2HB
CONST	SEGMENT
?max_exponent@?$numeric_limits@N@std@@2HB DD 0400H	; std::numeric_limits<double>::max_exponent
CONST	ENDS
;	COMDAT ?max_digits10@?$numeric_limits@N@std@@2HB
CONST	SEGMENT
?max_digits10@?$numeric_limits@N@std@@2HB DD 011H	; std::numeric_limits<double>::max_digits10
CONST	ENDS
;	COMDAT ?digits10@?$numeric_limits@N@std@@2HB
CONST	SEGMENT
?digits10@?$numeric_limits@N@std@@2HB DD 0fH		; std::numeric_limits<double>::digits10
CONST	ENDS
;	COMDAT ?digits@?$numeric_limits@N@std@@2HB
CONST	SEGMENT
?digits@?$numeric_limits@N@std@@2HB DD 035H		; std::numeric_limits<double>::digits
CONST	ENDS
;	COMDAT ?min_exponent10@?$numeric_limits@M@std@@2HB
CONST	SEGMENT
?min_exponent10@?$numeric_limits@M@std@@2HB DD 0ffffffdbH ; std::numeric_limits<float>::min_exponent10
CONST	ENDS
;	COMDAT ?min_exponent@?$numeric_limits@M@std@@2HB
CONST	SEGMENT
?min_exponent@?$numeric_limits@M@std@@2HB DD 0ffffff83H	; std::numeric_limits<float>::min_exponent
CONST	ENDS
;	COMDAT ?max_exponent10@?$numeric_limits@M@std@@2HB
CONST	SEGMENT
?max_exponent10@?$numeric_limits@M@std@@2HB DD 026H	; std::numeric_limits<float>::max_exponent10
CONST	ENDS
;	COMDAT ?max_exponent@?$numeric_limits@M@std@@2HB
CONST	SEGMENT
?max_exponent@?$numeric_limits@M@std@@2HB DD 080H	; std::numeric_limits<float>::max_exponent
CONST	ENDS
;	COMDAT ?max_digits10@?$numeric_limits@M@std@@2HB
CONST	SEGMENT
?max_digits10@?$numeric_limits@M@std@@2HB DD 09H	; std::numeric_limits<float>::max_digits10
CONST	ENDS
;	COMDAT ?digits10@?$numeric_limits@M@std@@2HB
CONST	SEGMENT
?digits10@?$numeric_limits@M@std@@2HB DD 06H		; std::numeric_limits<float>::digits10
CONST	ENDS
;	COMDAT ?digits@?$numeric_limits@M@std@@2HB
CONST	SEGMENT
?digits@?$numeric_limits@M@std@@2HB DD 018H		; std::numeric_limits<float>::digits
CONST	ENDS
;	COMDAT ?digits10@?$numeric_limits@_K@std@@2HB
CONST	SEGMENT
?digits10@?$numeric_limits@_K@std@@2HB DD 013H		; std::numeric_limits<unsigned __int64>::digits10
CONST	ENDS
;	COMDAT ?digits@?$numeric_limits@_K@std@@2HB
CONST	SEGMENT
?digits@?$numeric_limits@_K@std@@2HB DD 040H		; std::numeric_limits<unsigned __int64>::digits
CONST	ENDS
;	COMDAT ?is_signed@?$numeric_limits@_K@std@@2_NB
CONST	SEGMENT
?is_signed@?$numeric_limits@_K@std@@2_NB DB 00H		; std::numeric_limits<unsigned __int64>::is_signed
CONST	ENDS
;	COMDAT ?digits10@?$numeric_limits@_J@std@@2HB
CONST	SEGMENT
?digits10@?$numeric_limits@_J@std@@2HB DD 012H		; std::numeric_limits<__int64>::digits10
CONST	ENDS
;	COMDAT ?digits@?$numeric_limits@_J@std@@2HB
CONST	SEGMENT
?digits@?$numeric_limits@_J@std@@2HB DD 03fH		; std::numeric_limits<__int64>::digits
CONST	ENDS
;	COMDAT ?is_signed@?$numeric_limits@_J@std@@2_NB
CONST	SEGMENT
?is_signed@?$numeric_limits@_J@std@@2_NB DB 01H		; std::numeric_limits<__int64>::is_signed
CONST	ENDS
;	COMDAT ?digits10@?$numeric_limits@K@std@@2HB
CONST	SEGMENT
?digits10@?$numeric_limits@K@std@@2HB DD 09H		; std::numeric_limits<unsigned long>::digits10
CONST	ENDS
;	COMDAT ?digits@?$numeric_limits@K@std@@2HB
CONST	SEGMENT
?digits@?$numeric_limits@K@std@@2HB DD 020H		; std::numeric_limits<unsigned long>::digits
CONST	ENDS
;	COMDAT ?is_signed@?$numeric_limits@K@std@@2_NB
CONST	SEGMENT
?is_signed@?$numeric_limits@K@std@@2_NB DB 00H		; std::numeric_limits<unsigned long>::is_signed
CONST	ENDS
;	COMDAT ?digits10@?$numeric_limits@J@std@@2HB
CONST	SEGMENT
?digits10@?$numeric_limits@J@std@@2HB DD 09H		; std::numeric_limits<long>::digits10
CONST	ENDS
;	COMDAT ?digits@?$numeric_limits@J@std@@2HB
CONST	SEGMENT
?digits@?$numeric_limits@J@std@@2HB DD 01fH		; std::numeric_limits<long>::digits
CONST	ENDS
;	COMDAT ?is_signed@?$numeric_limits@J@std@@2_NB
CONST	SEGMENT
?is_signed@?$numeric_limits@J@std@@2_NB DB 01H		; std::numeric_limits<long>::is_signed
CONST	ENDS
;	COMDAT ?digits10@?$numeric_limits@I@std@@2HB
CONST	SEGMENT
?digits10@?$numeric_limits@I@std@@2HB DD 09H		; std::numeric_limits<unsigned int>::digits10
CONST	ENDS
;	COMDAT ?digits@?$numeric_limits@I@std@@2HB
CONST	SEGMENT
?digits@?$numeric_limits@I@std@@2HB DD 020H		; std::numeric_limits<unsigned int>::digits
CONST	ENDS
;	COMDAT ?is_signed@?$numeric_limits@I@std@@2_NB
CONST	SEGMENT
?is_signed@?$numeric_limits@I@std@@2_NB DB 00H		; std::numeric_limits<unsigned int>::is_signed
CONST	ENDS
;	COMDAT ?digits10@?$numeric_limits@H@std@@2HB
CONST	SEGMENT
?digits10@?$numeric_limits@H@std@@2HB DD 09H		; std::numeric_limits<int>::digits10
CONST	ENDS
;	COMDAT ?digits@?$numeric_limits@H@std@@2HB
CONST	SEGMENT
?digits@?$numeric_limits@H@std@@2HB DD 01fH		; std::numeric_limits<int>::digits
CONST	ENDS
;	COMDAT ?is_signed@?$numeric_limits@H@std@@2_NB
CONST	SEGMENT
?is_signed@?$numeric_limits@H@std@@2_NB DB 01H		; std::numeric_limits<int>::is_signed
CONST	ENDS
;	COMDAT ?digits10@?$numeric_limits@G@std@@2HB
CONST	SEGMENT
?digits10@?$numeric_limits@G@std@@2HB DD 04H		; std::numeric_limits<unsigned short>::digits10
CONST	ENDS
;	COMDAT ?digits@?$numeric_limits@G@std@@2HB
CONST	SEGMENT
?digits@?$numeric_limits@G@std@@2HB DD 010H		; std::numeric_limits<unsigned short>::digits
CONST	ENDS
;	COMDAT ?is_signed@?$numeric_limits@G@std@@2_NB
CONST	SEGMENT
?is_signed@?$numeric_limits@G@std@@2_NB DB 00H		; std::numeric_limits<unsigned short>::is_signed
CONST	ENDS
;	COMDAT ?digits10@?$numeric_limits@F@std@@2HB
CONST	SEGMENT
?digits10@?$numeric_limits@F@std@@2HB DD 04H		; std::numeric_limits<short>::digits10
CONST	ENDS
;	COMDAT ?digits@?$numeric_limits@F@std@@2HB
CONST	SEGMENT
?digits@?$numeric_limits@F@std@@2HB DD 0fH		; std::numeric_limits<short>::digits
CONST	ENDS
;	COMDAT ?is_signed@?$numeric_limits@F@std@@2_NB
CONST	SEGMENT
?is_signed@?$numeric_limits@F@std@@2_NB DB 01H		; std::numeric_limits<short>::is_signed
CONST	ENDS
;	COMDAT ?digits10@?$numeric_limits@E@std@@2HB
CONST	SEGMENT
?digits10@?$numeric_limits@E@std@@2HB DD 02H		; std::numeric_limits<unsigned char>::digits10
CONST	ENDS
;	COMDAT ?digits@?$numeric_limits@E@std@@2HB
CONST	SEGMENT
?digits@?$numeric_limits@E@std@@2HB DD 08H		; std::numeric_limits<unsigned char>::digits
CONST	ENDS
;	COMDAT ?is_signed@?$numeric_limits@E@std@@2_NB
CONST	SEGMENT
?is_signed@?$numeric_limits@E@std@@2_NB DB 00H		; std::numeric_limits<unsigned char>::is_signed
CONST	ENDS
;	COMDAT ?digits10@?$numeric_limits@C@std@@2HB
CONST	SEGMENT
?digits10@?$numeric_limits@C@std@@2HB DD 02H		; std::numeric_limits<signed char>::digits10
CONST	ENDS
;	COMDAT ?digits@?$numeric_limits@C@std@@2HB
CONST	SEGMENT
?digits@?$numeric_limits@C@std@@2HB DD 07H		; std::numeric_limits<signed char>::digits
CONST	ENDS
;	COMDAT ?is_signed@?$numeric_limits@C@std@@2_NB
CONST	SEGMENT
?is_signed@?$numeric_limits@C@std@@2_NB DB 01H		; std::numeric_limits<signed char>::is_signed
CONST	ENDS
;	COMDAT ?digits10@?$numeric_limits@_N@std@@2HB
CONST	SEGMENT
?digits10@?$numeric_limits@_N@std@@2HB DD 00H		; std::numeric_limits<bool>::digits10
CONST	ENDS
;	COMDAT ?digits@?$numeric_limits@_N@std@@2HB
CONST	SEGMENT
?digits@?$numeric_limits@_N@std@@2HB DD 01H		; std::numeric_limits<bool>::digits
CONST	ENDS
;	COMDAT ?is_signed@?$numeric_limits@_N@std@@2_NB
CONST	SEGMENT
?is_signed@?$numeric_limits@_N@std@@2_NB DB 00H		; std::numeric_limits<bool>::is_signed
CONST	ENDS
;	COMDAT ?is_modulo@?$numeric_limits@_N@std@@2_NB
CONST	SEGMENT
?is_modulo@?$numeric_limits@_N@std@@2_NB DB 00H		; std::numeric_limits<bool>::is_modulo
CONST	ENDS
;	COMDAT ?digits10@?$numeric_limits@_W@std@@2HB
CONST	SEGMENT
?digits10@?$numeric_limits@_W@std@@2HB DD 04H		; std::numeric_limits<wchar_t>::digits10
CONST	ENDS
;	COMDAT ?digits@?$numeric_limits@_W@std@@2HB
CONST	SEGMENT
?digits@?$numeric_limits@_W@std@@2HB DD 010H		; std::numeric_limits<wchar_t>::digits
CONST	ENDS
;	COMDAT ?is_signed@?$numeric_limits@_W@std@@2_NB
CONST	SEGMENT
?is_signed@?$numeric_limits@_W@std@@2_NB DB 00H		; std::numeric_limits<wchar_t>::is_signed
CONST	ENDS
;	COMDAT ?digits10@?$numeric_limits@D@std@@2HB
CONST	SEGMENT
?digits10@?$numeric_limits@D@std@@2HB DD 02H		; std::numeric_limits<char>::digits10
CONST	ENDS
;	COMDAT ?digits@?$numeric_limits@D@std@@2HB
CONST	SEGMENT
?digits@?$numeric_limits@D@std@@2HB DD 07H		; std::numeric_limits<char>::digits
CONST	ENDS
;	COMDAT ?is_signed@?$numeric_limits@D@std@@2_NB
CONST	SEGMENT
?is_signed@?$numeric_limits@D@std@@2_NB DB 01H		; std::numeric_limits<char>::is_signed
CONST	ENDS
;	COMDAT ?radix@_Num_float_base@std@@2HB
CONST	SEGMENT
?radix@_Num_float_base@std@@2HB DD 02H			; std::_Num_float_base::radix
CONST	ENDS
;	COMDAT ?round_style@_Num_float_base@std@@2W4float_round_style@2@B
CONST	SEGMENT
?round_style@_Num_float_base@std@@2W4float_round_style@2@B DD 01H ; std::_Num_float_base::round_style
CONST	ENDS
;	COMDAT ?traps@_Num_float_base@std@@2_NB
CONST	SEGMENT
?traps@_Num_float_base@std@@2_NB DB 00H			; std::_Num_float_base::traps
CONST	ENDS
;	COMDAT ?tinyness_before@_Num_float_base@std@@2_NB
CONST	SEGMENT
?tinyness_before@_Num_float_base@std@@2_NB DB 01H	; std::_Num_float_base::tinyness_before
CONST	ENDS
;	COMDAT ?is_specialized@_Num_float_base@std@@2_NB
CONST	SEGMENT
?is_specialized@_Num_float_base@std@@2_NB DB 01H	; std::_Num_float_base::is_specialized
CONST	ENDS
;	COMDAT ?is_signed@_Num_float_base@std@@2_NB
CONST	SEGMENT
?is_signed@_Num_float_base@std@@2_NB DB 01H		; std::_Num_float_base::is_signed
CONST	ENDS
;	COMDAT ?is_modulo@_Num_float_base@std@@2_NB
CONST	SEGMENT
?is_modulo@_Num_float_base@std@@2_NB DB 00H		; std::_Num_float_base::is_modulo
CONST	ENDS
;	COMDAT ?is_integer@_Num_float_base@std@@2_NB
CONST	SEGMENT
?is_integer@_Num_float_base@std@@2_NB DB 00H		; std::_Num_float_base::is_integer
CONST	ENDS
;	COMDAT ?is_iec559@_Num_float_base@std@@2_NB
CONST	SEGMENT
?is_iec559@_Num_float_base@std@@2_NB DB 01H		; std::_Num_float_base::is_iec559
CONST	ENDS
;	COMDAT ?is_exact@_Num_float_base@std@@2_NB
CONST	SEGMENT
?is_exact@_Num_float_base@std@@2_NB DB 00H		; std::_Num_float_base::is_exact
CONST	ENDS
;	COMDAT ?is_bounded@_Num_float_base@std@@2_NB
CONST	SEGMENT
?is_bounded@_Num_float_base@std@@2_NB DB 01H		; std::_Num_float_base::is_bounded
CONST	ENDS
;	COMDAT ?has_signaling_NaN@_Num_float_base@std@@2_NB
CONST	SEGMENT
?has_signaling_NaN@_Num_float_base@std@@2_NB DB 01H	; std::_Num_float_base::has_signaling_NaN
CONST	ENDS
;	COMDAT ?has_quiet_NaN@_Num_float_base@std@@2_NB
CONST	SEGMENT
?has_quiet_NaN@_Num_float_base@std@@2_NB DB 01H		; std::_Num_float_base::has_quiet_NaN
CONST	ENDS
;	COMDAT ?has_infinity@_Num_float_base@std@@2_NB
CONST	SEGMENT
?has_infinity@_Num_float_base@std@@2_NB DB 01H		; std::_Num_float_base::has_infinity
CONST	ENDS
;	COMDAT ?has_denorm_loss@_Num_float_base@std@@2_NB
CONST	SEGMENT
?has_denorm_loss@_Num_float_base@std@@2_NB DB 01H	; std::_Num_float_base::has_denorm_loss
CONST	ENDS
;	COMDAT ?has_denorm@_Num_float_base@std@@2W4float_denorm_style@2@B
CONST	SEGMENT
?has_denorm@_Num_float_base@std@@2W4float_denorm_style@2@B DD 01H ; std::_Num_float_base::has_denorm
CONST	ENDS
;	COMDAT ?radix@_Num_int_base@std@@2HB
CONST	SEGMENT
?radix@_Num_int_base@std@@2HB DD 02H			; std::_Num_int_base::radix
CONST	ENDS
;	COMDAT ?is_specialized@_Num_int_base@std@@2_NB
CONST	SEGMENT
?is_specialized@_Num_int_base@std@@2_NB DB 01H		; std::_Num_int_base::is_specialized
CONST	ENDS
;	COMDAT ?is_modulo@_Num_int_base@std@@2_NB
CONST	SEGMENT
?is_modulo@_Num_int_base@std@@2_NB DB 01H		; std::_Num_int_base::is_modulo
CONST	ENDS
;	COMDAT ?is_integer@_Num_int_base@std@@2_NB
CONST	SEGMENT
?is_integer@_Num_int_base@std@@2_NB DB 01H		; std::_Num_int_base::is_integer
CONST	ENDS
;	COMDAT ?is_exact@_Num_int_base@std@@2_NB
CONST	SEGMENT
?is_exact@_Num_int_base@std@@2_NB DB 01H		; std::_Num_int_base::is_exact
CONST	ENDS
;	COMDAT ?is_bounded@_Num_int_base@std@@2_NB
CONST	SEGMENT
?is_bounded@_Num_int_base@std@@2_NB DB 01H		; std::_Num_int_base::is_bounded
CONST	ENDS
;	COMDAT ?radix@_Num_base@std@@2HB
CONST	SEGMENT
?radix@_Num_base@std@@2HB DD 00H			; std::_Num_base::radix
CONST	ENDS
;	COMDAT ?min_exponent10@_Num_base@std@@2HB
CONST	SEGMENT
?min_exponent10@_Num_base@std@@2HB DD 00H		; std::_Num_base::min_exponent10
CONST	ENDS
;	COMDAT ?min_exponent@_Num_base@std@@2HB
CONST	SEGMENT
?min_exponent@_Num_base@std@@2HB DD 00H			; std::_Num_base::min_exponent
CONST	ENDS
;	COMDAT ?max_exponent10@_Num_base@std@@2HB
CONST	SEGMENT
?max_exponent10@_Num_base@std@@2HB DD 00H		; std::_Num_base::max_exponent10
CONST	ENDS
;	COMDAT ?max_exponent@_Num_base@std@@2HB
CONST	SEGMENT
?max_exponent@_Num_base@std@@2HB DD 00H			; std::_Num_base::max_exponent
CONST	ENDS
;	COMDAT ?max_digits10@_Num_base@std@@2HB
CONST	SEGMENT
?max_digits10@_Num_base@std@@2HB DD 00H			; std::_Num_base::max_digits10
CONST	ENDS
;	COMDAT ?digits10@_Num_base@std@@2HB
CONST	SEGMENT
?digits10@_Num_base@std@@2HB DD 00H			; std::_Num_base::digits10
CONST	ENDS
;	COMDAT ?digits@_Num_base@std@@2HB
CONST	SEGMENT
?digits@_Num_base@std@@2HB DD 00H			; std::_Num_base::digits
CONST	ENDS
;	COMDAT ?round_style@_Num_base@std@@2W4float_round_style@2@B
CONST	SEGMENT
?round_style@_Num_base@std@@2W4float_round_style@2@B DD 00H ; std::_Num_base::round_style
CONST	ENDS
;	COMDAT ?traps@_Num_base@std@@2_NB
CONST	SEGMENT
?traps@_Num_base@std@@2_NB DB 00H			; std::_Num_base::traps
CONST	ENDS
;	COMDAT ?tinyness_before@_Num_base@std@@2_NB
CONST	SEGMENT
?tinyness_before@_Num_base@std@@2_NB DB 00H		; std::_Num_base::tinyness_before
CONST	ENDS
;	COMDAT ?is_specialized@_Num_base@std@@2_NB
CONST	SEGMENT
?is_specialized@_Num_base@std@@2_NB DB 00H		; std::_Num_base::is_specialized
CONST	ENDS
;	COMDAT ?is_signed@_Num_base@std@@2_NB
CONST	SEGMENT
?is_signed@_Num_base@std@@2_NB DB 00H			; std::_Num_base::is_signed
CONST	ENDS
;	COMDAT ?is_modulo@_Num_base@std@@2_NB
CONST	SEGMENT
?is_modulo@_Num_base@std@@2_NB DB 00H			; std::_Num_base::is_modulo
CONST	ENDS
;	COMDAT ?is_integer@_Num_base@std@@2_NB
CONST	SEGMENT
?is_integer@_Num_base@std@@2_NB DB 00H			; std::_Num_base::is_integer
CONST	ENDS
;	COMDAT ?is_iec559@_Num_base@std@@2_NB
CONST	SEGMENT
?is_iec559@_Num_base@std@@2_NB DB 00H			; std::_Num_base::is_iec559
CONST	ENDS
;	COMDAT ?is_exact@_Num_base@std@@2_NB
CONST	SEGMENT
?is_exact@_Num_base@std@@2_NB DB 00H			; std::_Num_base::is_exact
CONST	ENDS
;	COMDAT ?is_bounded@_Num_base@std@@2_NB
CONST	SEGMENT
?is_bounded@_Num_base@std@@2_NB DB 00H			; std::_Num_base::is_bounded
CONST	ENDS
;	COMDAT ?has_signaling_NaN@_Num_base@std@@2_NB
CONST	SEGMENT
?has_signaling_NaN@_Num_base@std@@2_NB DB 00H		; std::_Num_base::has_signaling_NaN
CONST	ENDS
;	COMDAT ?has_quiet_NaN@_Num_base@std@@2_NB
CONST	SEGMENT
?has_quiet_NaN@_Num_base@std@@2_NB DB 00H		; std::_Num_base::has_quiet_NaN
CONST	ENDS
;	COMDAT ?has_infinity@_Num_base@std@@2_NB
CONST	SEGMENT
?has_infinity@_Num_base@std@@2_NB DB 00H		; std::_Num_base::has_infinity
CONST	ENDS
;	COMDAT ?has_denorm_loss@_Num_base@std@@2_NB
CONST	SEGMENT
?has_denorm_loss@_Num_base@std@@2_NB DB 00H		; std::_Num_base::has_denorm_loss
CONST	ENDS
;	COMDAT ?has_denorm@_Num_base@std@@2W4float_denorm_style@2@B
CONST	SEGMENT
?has_denorm@_Num_base@std@@2W4float_denorm_style@2@B DD 00H ; std::_Num_base::has_denorm
CONST	ENDS
PUBLIC	??_H@YGXPAXIHP6EPAX0@Z@Z			; `vector constructor iterator'
PUBLIC	_hypot
PUBLIC	_cosf
PUBLIC	_sinf
PUBLIC	_sqrtf
PUBLIC	?cos@@YAMM@Z					; cos
PUBLIC	?sin@@YAMM@Z					; sin
PUBLIC	?sqrt@@YAMM@Z					; sqrt
PUBLIC	?length@?$tvec2@M$0A@@glm@@SAHXZ		; glm::tvec2<float,0>::length
PUBLIC	??A?$tvec2@M$0A@@glm@@QAEAAMH@Z			; glm::tvec2<float,0>::operator[]
PUBLIC	??A?$tvec2@M$0A@@glm@@QBEABMH@Z			; glm::tvec2<float,0>::operator[]
PUBLIC	??0?$tvec2@M$0A@@glm@@QAE@XZ			; glm::tvec2<float,0>::tvec2<float,0>
PUBLIC	??0?$tvec2@M$0A@@glm@@QAE@ABU01@@Z		; glm::tvec2<float,0>::tvec2<float,0>
PUBLIC	??0?$tvec2@M$0A@@glm@@QAE@W4ctor@1@@Z		; glm::tvec2<float,0>::tvec2<float,0>
PUBLIC	??0?$tvec2@M$0A@@glm@@QAE@M@Z			; glm::tvec2<float,0>::tvec2<float,0>
PUBLIC	??0?$tvec2@M$0A@@glm@@QAE@MM@Z			; glm::tvec2<float,0>::tvec2<float,0>
PUBLIC	??4?$tvec2@M$0A@@glm@@QAEAAU01@ABU01@@Z		; glm::tvec2<float,0>::operator=
PUBLIC	??E?$tvec2@M$0A@@glm@@QAEAAU01@XZ		; glm::tvec2<float,0>::operator++
PUBLIC	??F?$tvec2@M$0A@@glm@@QAEAAU01@XZ		; glm::tvec2<float,0>::operator--
PUBLIC	??E?$tvec2@M$0A@@glm@@QAE?AU01@H@Z		; glm::tvec2<float,0>::operator++
PUBLIC	??F?$tvec2@M$0A@@glm@@QAE?AU01@H@Z		; glm::tvec2<float,0>::operator--
PUBLIC	?length@?$tvec2@G$0A@@glm@@SAHXZ		; glm::tvec2<unsigned short,0>::length
PUBLIC	??A?$tvec2@G$0A@@glm@@QAEAAGH@Z			; glm::tvec2<unsigned short,0>::operator[]
PUBLIC	??A?$tvec2@G$0A@@glm@@QBEABGH@Z			; glm::tvec2<unsigned short,0>::operator[]
PUBLIC	??0?$tvec2@G$0A@@glm@@QAE@XZ			; glm::tvec2<unsigned short,0>::tvec2<unsigned short,0>
PUBLIC	??0?$tvec2@G$0A@@glm@@QAE@ABU01@@Z		; glm::tvec2<unsigned short,0>::tvec2<unsigned short,0>
PUBLIC	??0?$tvec2@G$0A@@glm@@QAE@W4ctor@1@@Z		; glm::tvec2<unsigned short,0>::tvec2<unsigned short,0>
PUBLIC	??0?$tvec2@G$0A@@glm@@QAE@G@Z			; glm::tvec2<unsigned short,0>::tvec2<unsigned short,0>
PUBLIC	??0?$tvec2@G$0A@@glm@@QAE@GG@Z			; glm::tvec2<unsigned short,0>::tvec2<unsigned short,0>
PUBLIC	??4?$tvec2@G$0A@@glm@@QAEAAU01@ABU01@@Z		; glm::tvec2<unsigned short,0>::operator=
PUBLIC	??E?$tvec2@G$0A@@glm@@QAEAAU01@XZ		; glm::tvec2<unsigned short,0>::operator++
PUBLIC	??F?$tvec2@G$0A@@glm@@QAEAAU01@XZ		; glm::tvec2<unsigned short,0>::operator--
PUBLIC	??E?$tvec2@G$0A@@glm@@QAE?AU01@H@Z		; glm::tvec2<unsigned short,0>::operator++
PUBLIC	??F?$tvec2@G$0A@@glm@@QAE?AU01@H@Z		; glm::tvec2<unsigned short,0>::operator--
PUBLIC	?length@?$tvec2@F$0A@@glm@@SAHXZ		; glm::tvec2<short,0>::length
PUBLIC	??A?$tvec2@F$0A@@glm@@QAEAAFH@Z			; glm::tvec2<short,0>::operator[]
PUBLIC	??A?$tvec2@F$0A@@glm@@QBEABFH@Z			; glm::tvec2<short,0>::operator[]
PUBLIC	??0?$tvec2@F$0A@@glm@@QAE@XZ			; glm::tvec2<short,0>::tvec2<short,0>
PUBLIC	??0?$tvec2@F$0A@@glm@@QAE@ABU01@@Z		; glm::tvec2<short,0>::tvec2<short,0>
PUBLIC	??0?$tvec2@F$0A@@glm@@QAE@W4ctor@1@@Z		; glm::tvec2<short,0>::tvec2<short,0>
PUBLIC	??0?$tvec2@F$0A@@glm@@QAE@F@Z			; glm::tvec2<short,0>::tvec2<short,0>
PUBLIC	??0?$tvec2@F$0A@@glm@@QAE@FF@Z			; glm::tvec2<short,0>::tvec2<short,0>
PUBLIC	??4?$tvec2@F$0A@@glm@@QAEAAU01@ABU01@@Z		; glm::tvec2<short,0>::operator=
PUBLIC	??E?$tvec2@F$0A@@glm@@QAEAAU01@XZ		; glm::tvec2<short,0>::operator++
PUBLIC	??F?$tvec2@F$0A@@glm@@QAEAAU01@XZ		; glm::tvec2<short,0>::operator--
PUBLIC	??E?$tvec2@F$0A@@glm@@QAE?AU01@H@Z		; glm::tvec2<short,0>::operator++
PUBLIC	??F?$tvec2@F$0A@@glm@@QAE?AU01@H@Z		; glm::tvec2<short,0>::operator--
PUBLIC	?length@?$tvec4@M$0A@@glm@@SAHXZ		; glm::tvec4<float,0>::length
PUBLIC	??A?$tvec4@M$0A@@glm@@QAEAAMH@Z			; glm::tvec4<float,0>::operator[]
PUBLIC	??A?$tvec4@M$0A@@glm@@QBEABMH@Z			; glm::tvec4<float,0>::operator[]
PUBLIC	??0?$tvec4@M$0A@@glm@@QAE@XZ			; glm::tvec4<float,0>::tvec4<float,0>
PUBLIC	??0?$tvec4@M$0A@@glm@@QAE@ABU01@@Z		; glm::tvec4<float,0>::tvec4<float,0>
PUBLIC	??0?$tvec4@M$0A@@glm@@QAE@W4ctor@1@@Z		; glm::tvec4<float,0>::tvec4<float,0>
PUBLIC	??0?$tvec4@M$0A@@glm@@QAE@M@Z			; glm::tvec4<float,0>::tvec4<float,0>
PUBLIC	??0?$tvec4@M$0A@@glm@@QAE@MMMM@Z		; glm::tvec4<float,0>::tvec4<float,0>
PUBLIC	??4?$tvec4@M$0A@@glm@@QAEAAU01@ABU01@@Z		; glm::tvec4<float,0>::operator=
PUBLIC	??E?$tvec4@M$0A@@glm@@QAEAAU01@XZ		; glm::tvec4<float,0>::operator++
PUBLIC	??F?$tvec4@M$0A@@glm@@QAEAAU01@XZ		; glm::tvec4<float,0>::operator--
PUBLIC	??E?$tvec4@M$0A@@glm@@QAE?AU01@H@Z		; glm::tvec4<float,0>::operator++
PUBLIC	??F?$tvec4@M$0A@@glm@@QAE?AU01@H@Z		; glm::tvec4<float,0>::operator--
PUBLIC	?length@?$tvec4@E$0A@@glm@@SAHXZ		; glm::tvec4<unsigned char,0>::length
PUBLIC	??A?$tvec4@E$0A@@glm@@QAEAAEH@Z			; glm::tvec4<unsigned char,0>::operator[]
PUBLIC	??A?$tvec4@E$0A@@glm@@QBEABEH@Z			; glm::tvec4<unsigned char,0>::operator[]
PUBLIC	??0?$tvec4@E$0A@@glm@@QAE@XZ			; glm::tvec4<unsigned char,0>::tvec4<unsigned char,0>
PUBLIC	??0?$tvec4@E$0A@@glm@@QAE@ABU01@@Z		; glm::tvec4<unsigned char,0>::tvec4<unsigned char,0>
PUBLIC	??0?$tvec4@E$0A@@glm@@QAE@W4ctor@1@@Z		; glm::tvec4<unsigned char,0>::tvec4<unsigned char,0>
PUBLIC	??0?$tvec4@E$0A@@glm@@QAE@E@Z			; glm::tvec4<unsigned char,0>::tvec4<unsigned char,0>
PUBLIC	??0?$tvec4@E$0A@@glm@@QAE@EEEE@Z		; glm::tvec4<unsigned char,0>::tvec4<unsigned char,0>
PUBLIC	??4?$tvec4@E$0A@@glm@@QAEAAU01@ABU01@@Z		; glm::tvec4<unsigned char,0>::operator=
PUBLIC	??E?$tvec4@E$0A@@glm@@QAEAAU01@XZ		; glm::tvec4<unsigned char,0>::operator++
PUBLIC	??F?$tvec4@E$0A@@glm@@QAEAAU01@XZ		; glm::tvec4<unsigned char,0>::operator--
PUBLIC	??E?$tvec4@E$0A@@glm@@QAE?AU01@H@Z		; glm::tvec4<unsigned char,0>::operator++
PUBLIC	??F?$tvec4@E$0A@@glm@@QAE?AU01@H@Z		; glm::tvec4<unsigned char,0>::operator--
PUBLIC	?length@?$tvec4@C$0A@@glm@@SAHXZ		; glm::tvec4<signed char,0>::length
PUBLIC	??A?$tvec4@C$0A@@glm@@QAEAACH@Z			; glm::tvec4<signed char,0>::operator[]
PUBLIC	??A?$tvec4@C$0A@@glm@@QBEABCH@Z			; glm::tvec4<signed char,0>::operator[]
PUBLIC	??0?$tvec4@C$0A@@glm@@QAE@XZ			; glm::tvec4<signed char,0>::tvec4<signed char,0>
PUBLIC	??0?$tvec4@C$0A@@glm@@QAE@ABU01@@Z		; glm::tvec4<signed char,0>::tvec4<signed char,0>
PUBLIC	??0?$tvec4@C$0A@@glm@@QAE@W4ctor@1@@Z		; glm::tvec4<signed char,0>::tvec4<signed char,0>
PUBLIC	??0?$tvec4@C$0A@@glm@@QAE@C@Z			; glm::tvec4<signed char,0>::tvec4<signed char,0>
PUBLIC	??0?$tvec4@C$0A@@glm@@QAE@CCCC@Z		; glm::tvec4<signed char,0>::tvec4<signed char,0>
PUBLIC	??4?$tvec4@C$0A@@glm@@QAEAAU01@ABU01@@Z		; glm::tvec4<signed char,0>::operator=
PUBLIC	??E?$tvec4@C$0A@@glm@@QAEAAU01@XZ		; glm::tvec4<signed char,0>::operator++
PUBLIC	??F?$tvec4@C$0A@@glm@@QAEAAU01@XZ		; glm::tvec4<signed char,0>::operator--
PUBLIC	??E?$tvec4@C$0A@@glm@@QAE?AU01@H@Z		; glm::tvec4<signed char,0>::operator++
PUBLIC	??F?$tvec4@C$0A@@glm@@QAE?AU01@H@Z		; glm::tvec4<signed char,0>::operator--
PUBLIC	?length@?$tvec2@I$0A@@glm@@SAHXZ		; glm::tvec2<unsigned int,0>::length
PUBLIC	??A?$tvec2@I$0A@@glm@@QAEAAIH@Z			; glm::tvec2<unsigned int,0>::operator[]
PUBLIC	??A?$tvec2@I$0A@@glm@@QBEABIH@Z			; glm::tvec2<unsigned int,0>::operator[]
PUBLIC	??0?$tvec2@I$0A@@glm@@QAE@XZ			; glm::tvec2<unsigned int,0>::tvec2<unsigned int,0>
PUBLIC	??0?$tvec2@I$0A@@glm@@QAE@ABU01@@Z		; glm::tvec2<unsigned int,0>::tvec2<unsigned int,0>
PUBLIC	??0?$tvec2@I$0A@@glm@@QAE@W4ctor@1@@Z		; glm::tvec2<unsigned int,0>::tvec2<unsigned int,0>
PUBLIC	??0?$tvec2@I$0A@@glm@@QAE@I@Z			; glm::tvec2<unsigned int,0>::tvec2<unsigned int,0>
PUBLIC	??0?$tvec2@I$0A@@glm@@QAE@II@Z			; glm::tvec2<unsigned int,0>::tvec2<unsigned int,0>
PUBLIC	??4?$tvec2@I$0A@@glm@@QAEAAU01@ABU01@@Z		; glm::tvec2<unsigned int,0>::operator=
PUBLIC	??E?$tvec2@I$0A@@glm@@QAEAAU01@XZ		; glm::tvec2<unsigned int,0>::operator++
PUBLIC	??F?$tvec2@I$0A@@glm@@QAEAAU01@XZ		; glm::tvec2<unsigned int,0>::operator--
PUBLIC	??E?$tvec2@I$0A@@glm@@QAE?AU01@H@Z		; glm::tvec2<unsigned int,0>::operator++
PUBLIC	??F?$tvec2@I$0A@@glm@@QAE?AU01@H@Z		; glm::tvec2<unsigned int,0>::operator--
PUBLIC	?length@?$tvec1@E$01@glm@@SAHXZ			; glm::tvec1<unsigned char,2>::length
PUBLIC	??A?$tvec1@E$01@glm@@QAEAAEH@Z			; glm::tvec1<unsigned char,2>::operator[]
PUBLIC	??A?$tvec1@E$01@glm@@QBEABEH@Z			; glm::tvec1<unsigned char,2>::operator[]
PUBLIC	??0?$tvec1@E$01@glm@@QAE@XZ			; glm::tvec1<unsigned char,2>::tvec1<unsigned char,2>
PUBLIC	??0?$tvec1@E$01@glm@@QAE@ABU01@@Z		; glm::tvec1<unsigned char,2>::tvec1<unsigned char,2>
PUBLIC	??0?$tvec1@E$01@glm@@QAE@W4ctor@1@@Z		; glm::tvec1<unsigned char,2>::tvec1<unsigned char,2>
PUBLIC	??0?$tvec1@E$01@glm@@QAE@E@Z			; glm::tvec1<unsigned char,2>::tvec1<unsigned char,2>
PUBLIC	??4?$tvec1@E$01@glm@@QAEAAU01@ABU01@@Z		; glm::tvec1<unsigned char,2>::operator=
PUBLIC	??E?$tvec1@E$01@glm@@QAEAAU01@XZ		; glm::tvec1<unsigned char,2>::operator++
PUBLIC	??F?$tvec1@E$01@glm@@QAEAAU01@XZ		; glm::tvec1<unsigned char,2>::operator--
PUBLIC	??E?$tvec1@E$01@glm@@QAE?AU01@H@Z		; glm::tvec1<unsigned char,2>::operator++
PUBLIC	??F?$tvec1@E$01@glm@@QAE?AU01@H@Z		; glm::tvec1<unsigned char,2>::operator--
PUBLIC	?length@?$tvec1@G$01@glm@@SAHXZ			; glm::tvec1<unsigned short,2>::length
PUBLIC	??A?$tvec1@G$01@glm@@QAEAAGH@Z			; glm::tvec1<unsigned short,2>::operator[]
PUBLIC	??A?$tvec1@G$01@glm@@QBEABGH@Z			; glm::tvec1<unsigned short,2>::operator[]
PUBLIC	??0?$tvec1@G$01@glm@@QAE@XZ			; glm::tvec1<unsigned short,2>::tvec1<unsigned short,2>
PUBLIC	??0?$tvec1@G$01@glm@@QAE@ABU01@@Z		; glm::tvec1<unsigned short,2>::tvec1<unsigned short,2>
PUBLIC	??0?$tvec1@G$01@glm@@QAE@W4ctor@1@@Z		; glm::tvec1<unsigned short,2>::tvec1<unsigned short,2>
PUBLIC	??0?$tvec1@G$01@glm@@QAE@G@Z			; glm::tvec1<unsigned short,2>::tvec1<unsigned short,2>
PUBLIC	??4?$tvec1@G$01@glm@@QAEAAU01@ABU01@@Z		; glm::tvec1<unsigned short,2>::operator=
PUBLIC	??E?$tvec1@G$01@glm@@QAEAAU01@XZ		; glm::tvec1<unsigned short,2>::operator++
PUBLIC	??F?$tvec1@G$01@glm@@QAEAAU01@XZ		; glm::tvec1<unsigned short,2>::operator--
PUBLIC	??E?$tvec1@G$01@glm@@QAE?AU01@H@Z		; glm::tvec1<unsigned short,2>::operator++
PUBLIC	??F?$tvec1@G$01@glm@@QAE?AU01@H@Z		; glm::tvec1<unsigned short,2>::operator--
PUBLIC	?length@?$tvec1@I$01@glm@@SAHXZ			; glm::tvec1<unsigned int,2>::length
PUBLIC	??A?$tvec1@I$01@glm@@QAEAAIH@Z			; glm::tvec1<unsigned int,2>::operator[]
PUBLIC	??A?$tvec1@I$01@glm@@QBEABIH@Z			; glm::tvec1<unsigned int,2>::operator[]
PUBLIC	??0?$tvec1@I$01@glm@@QAE@XZ			; glm::tvec1<unsigned int,2>::tvec1<unsigned int,2>
PUBLIC	??0?$tvec1@I$01@glm@@QAE@ABU01@@Z		; glm::tvec1<unsigned int,2>::tvec1<unsigned int,2>
PUBLIC	??0?$tvec1@I$01@glm@@QAE@W4ctor@1@@Z		; glm::tvec1<unsigned int,2>::tvec1<unsigned int,2>
PUBLIC	??0?$tvec1@I$01@glm@@QAE@I@Z			; glm::tvec1<unsigned int,2>::tvec1<unsigned int,2>
PUBLIC	??4?$tvec1@I$01@glm@@QAEAAU01@ABU01@@Z		; glm::tvec1<unsigned int,2>::operator=
PUBLIC	??E?$tvec1@I$01@glm@@QAEAAU01@XZ		; glm::tvec1<unsigned int,2>::operator++
PUBLIC	??F?$tvec1@I$01@glm@@QAEAAU01@XZ		; glm::tvec1<unsigned int,2>::operator--
PUBLIC	??E?$tvec1@I$01@glm@@QAE?AU01@H@Z		; glm::tvec1<unsigned int,2>::operator++
PUBLIC	??F?$tvec1@I$01@glm@@QAE?AU01@H@Z		; glm::tvec1<unsigned int,2>::operator--
PUBLIC	?length@?$tvec1@_K$01@glm@@SAHXZ		; glm::tvec1<unsigned __int64,2>::length
PUBLIC	??A?$tvec1@_K$01@glm@@QAEAA_KH@Z		; glm::tvec1<unsigned __int64,2>::operator[]
PUBLIC	??A?$tvec1@_K$01@glm@@QBEAB_KH@Z		; glm::tvec1<unsigned __int64,2>::operator[]
PUBLIC	??0?$tvec1@_K$01@glm@@QAE@XZ			; glm::tvec1<unsigned __int64,2>::tvec1<unsigned __int64,2>
PUBLIC	??0?$tvec1@_K$01@glm@@QAE@ABU01@@Z		; glm::tvec1<unsigned __int64,2>::tvec1<unsigned __int64,2>
PUBLIC	??0?$tvec1@_K$01@glm@@QAE@W4ctor@1@@Z		; glm::tvec1<unsigned __int64,2>::tvec1<unsigned __int64,2>
PUBLIC	??0?$tvec1@_K$01@glm@@QAE@_K@Z			; glm::tvec1<unsigned __int64,2>::tvec1<unsigned __int64,2>
PUBLIC	??4?$tvec1@_K$01@glm@@QAEAAU01@ABU01@@Z		; glm::tvec1<unsigned __int64,2>::operator=
PUBLIC	??E?$tvec1@_K$01@glm@@QAEAAU01@XZ		; glm::tvec1<unsigned __int64,2>::operator++
PUBLIC	??F?$tvec1@_K$01@glm@@QAEAAU01@XZ		; glm::tvec1<unsigned __int64,2>::operator--
PUBLIC	??E?$tvec1@_K$01@glm@@QAE?AU01@H@Z		; glm::tvec1<unsigned __int64,2>::operator++
PUBLIC	??F?$tvec1@_K$01@glm@@QAE?AU01@H@Z		; glm::tvec1<unsigned __int64,2>::operator--
PUBLIC	?length@?$tvec1@C$01@glm@@SAHXZ			; glm::tvec1<signed char,2>::length
PUBLIC	??A?$tvec1@C$01@glm@@QAEAACH@Z			; glm::tvec1<signed char,2>::operator[]
PUBLIC	??A?$tvec1@C$01@glm@@QBEABCH@Z			; glm::tvec1<signed char,2>::operator[]
PUBLIC	??0?$tvec1@C$01@glm@@QAE@XZ			; glm::tvec1<signed char,2>::tvec1<signed char,2>
PUBLIC	??0?$tvec1@C$01@glm@@QAE@ABU01@@Z		; glm::tvec1<signed char,2>::tvec1<signed char,2>
PUBLIC	??0?$tvec1@C$01@glm@@QAE@W4ctor@1@@Z		; glm::tvec1<signed char,2>::tvec1<signed char,2>
PUBLIC	??0?$tvec1@C$01@glm@@QAE@C@Z			; glm::tvec1<signed char,2>::tvec1<signed char,2>
PUBLIC	??4?$tvec1@C$01@glm@@QAEAAU01@ABU01@@Z		; glm::tvec1<signed char,2>::operator=
PUBLIC	??E?$tvec1@C$01@glm@@QAEAAU01@XZ		; glm::tvec1<signed char,2>::operator++
PUBLIC	??F?$tvec1@C$01@glm@@QAEAAU01@XZ		; glm::tvec1<signed char,2>::operator--
PUBLIC	??E?$tvec1@C$01@glm@@QAE?AU01@H@Z		; glm::tvec1<signed char,2>::operator++
PUBLIC	??F?$tvec1@C$01@glm@@QAE?AU01@H@Z		; glm::tvec1<signed char,2>::operator--
PUBLIC	?length@?$tvec1@F$01@glm@@SAHXZ			; glm::tvec1<short,2>::length
PUBLIC	??A?$tvec1@F$01@glm@@QAEAAFH@Z			; glm::tvec1<short,2>::operator[]
PUBLIC	??A?$tvec1@F$01@glm@@QBEABFH@Z			; glm::tvec1<short,2>::operator[]
PUBLIC	??0?$tvec1@F$01@glm@@QAE@XZ			; glm::tvec1<short,2>::tvec1<short,2>
PUBLIC	??0?$tvec1@F$01@glm@@QAE@ABU01@@Z		; glm::tvec1<short,2>::tvec1<short,2>
PUBLIC	??0?$tvec1@F$01@glm@@QAE@W4ctor@1@@Z		; glm::tvec1<short,2>::tvec1<short,2>
PUBLIC	??0?$tvec1@F$01@glm@@QAE@F@Z			; glm::tvec1<short,2>::tvec1<short,2>
PUBLIC	??4?$tvec1@F$01@glm@@QAEAAU01@ABU01@@Z		; glm::tvec1<short,2>::operator=
PUBLIC	??E?$tvec1@F$01@glm@@QAEAAU01@XZ		; glm::tvec1<short,2>::operator++
PUBLIC	??F?$tvec1@F$01@glm@@QAEAAU01@XZ		; glm::tvec1<short,2>::operator--
PUBLIC	??E?$tvec1@F$01@glm@@QAE?AU01@H@Z		; glm::tvec1<short,2>::operator++
PUBLIC	??F?$tvec1@F$01@glm@@QAE?AU01@H@Z		; glm::tvec1<short,2>::operator--
PUBLIC	?length@?$tvec1@H$01@glm@@SAHXZ			; glm::tvec1<int,2>::length
PUBLIC	??A?$tvec1@H$01@glm@@QAEAAHH@Z			; glm::tvec1<int,2>::operator[]
PUBLIC	??A?$tvec1@H$01@glm@@QBEABHH@Z			; glm::tvec1<int,2>::operator[]
PUBLIC	??0?$tvec1@H$01@glm@@QAE@XZ			; glm::tvec1<int,2>::tvec1<int,2>
PUBLIC	??0?$tvec1@H$01@glm@@QAE@ABU01@@Z		; glm::tvec1<int,2>::tvec1<int,2>
PUBLIC	??0?$tvec1@H$01@glm@@QAE@W4ctor@1@@Z		; glm::tvec1<int,2>::tvec1<int,2>
PUBLIC	??0?$tvec1@H$01@glm@@QAE@H@Z			; glm::tvec1<int,2>::tvec1<int,2>
PUBLIC	??4?$tvec1@H$01@glm@@QAEAAU01@ABU01@@Z		; glm::tvec1<int,2>::operator=
PUBLIC	??E?$tvec1@H$01@glm@@QAEAAU01@XZ		; glm::tvec1<int,2>::operator++
PUBLIC	??F?$tvec1@H$01@glm@@QAEAAU01@XZ		; glm::tvec1<int,2>::operator--
PUBLIC	??E?$tvec1@H$01@glm@@QAE?AU01@H@Z		; glm::tvec1<int,2>::operator++
PUBLIC	??F?$tvec1@H$01@glm@@QAE?AU01@H@Z		; glm::tvec1<int,2>::operator--
PUBLIC	?length@?$tvec1@_J$01@glm@@SAHXZ		; glm::tvec1<__int64,2>::length
PUBLIC	??A?$tvec1@_J$01@glm@@QAEAA_JH@Z		; glm::tvec1<__int64,2>::operator[]
PUBLIC	??A?$tvec1@_J$01@glm@@QBEAB_JH@Z		; glm::tvec1<__int64,2>::operator[]
PUBLIC	??0?$tvec1@_J$01@glm@@QAE@XZ			; glm::tvec1<__int64,2>::tvec1<__int64,2>
PUBLIC	??0?$tvec1@_J$01@glm@@QAE@ABU01@@Z		; glm::tvec1<__int64,2>::tvec1<__int64,2>
PUBLIC	??0?$tvec1@_J$01@glm@@QAE@W4ctor@1@@Z		; glm::tvec1<__int64,2>::tvec1<__int64,2>
PUBLIC	??0?$tvec1@_J$01@glm@@QAE@_J@Z			; glm::tvec1<__int64,2>::tvec1<__int64,2>
PUBLIC	??4?$tvec1@_J$01@glm@@QAEAAU01@ABU01@@Z		; glm::tvec1<__int64,2>::operator=
PUBLIC	??E?$tvec1@_J$01@glm@@QAEAAU01@XZ		; glm::tvec1<__int64,2>::operator++
PUBLIC	??F?$tvec1@_J$01@glm@@QAEAAU01@XZ		; glm::tvec1<__int64,2>::operator--
PUBLIC	??E?$tvec1@_J$01@glm@@QAE?AU01@H@Z		; glm::tvec1<__int64,2>::operator++
PUBLIC	??F?$tvec1@_J$01@glm@@QAE?AU01@H@Z		; glm::tvec1<__int64,2>::operator--
PUBLIC	?length@?$tvec1@M$01@glm@@SAHXZ			; glm::tvec1<float,2>::length
PUBLIC	??A?$tvec1@M$01@glm@@QAEAAMH@Z			; glm::tvec1<float,2>::operator[]
PUBLIC	??A?$tvec1@M$01@glm@@QBEABMH@Z			; glm::tvec1<float,2>::operator[]
PUBLIC	??0?$tvec1@M$01@glm@@QAE@XZ			; glm::tvec1<float,2>::tvec1<float,2>
PUBLIC	??0?$tvec1@M$01@glm@@QAE@ABU01@@Z		; glm::tvec1<float,2>::tvec1<float,2>
PUBLIC	??0?$tvec1@M$01@glm@@QAE@W4ctor@1@@Z		; glm::tvec1<float,2>::tvec1<float,2>
PUBLIC	??0?$tvec1@M$01@glm@@QAE@M@Z			; glm::tvec1<float,2>::tvec1<float,2>
PUBLIC	??4?$tvec1@M$01@glm@@QAEAAU01@ABU01@@Z		; glm::tvec1<float,2>::operator=
PUBLIC	??E?$tvec1@M$01@glm@@QAEAAU01@XZ		; glm::tvec1<float,2>::operator++
PUBLIC	??F?$tvec1@M$01@glm@@QAEAAU01@XZ		; glm::tvec1<float,2>::operator--
PUBLIC	??E?$tvec1@M$01@glm@@QAE?AU01@H@Z		; glm::tvec1<float,2>::operator++
PUBLIC	??F?$tvec1@M$01@glm@@QAE?AU01@H@Z		; glm::tvec1<float,2>::operator--
PUBLIC	?length@?$tvec1@N$01@glm@@SAHXZ			; glm::tvec1<double,2>::length
PUBLIC	??A?$tvec1@N$01@glm@@QAEAANH@Z			; glm::tvec1<double,2>::operator[]
PUBLIC	??A?$tvec1@N$01@glm@@QBEABNH@Z			; glm::tvec1<double,2>::operator[]
PUBLIC	??0?$tvec1@N$01@glm@@QAE@XZ			; glm::tvec1<double,2>::tvec1<double,2>
PUBLIC	??0?$tvec1@N$01@glm@@QAE@ABU01@@Z		; glm::tvec1<double,2>::tvec1<double,2>
PUBLIC	??0?$tvec1@N$01@glm@@QAE@W4ctor@1@@Z		; glm::tvec1<double,2>::tvec1<double,2>
PUBLIC	??0?$tvec1@N$01@glm@@QAE@N@Z			; glm::tvec1<double,2>::tvec1<double,2>
PUBLIC	??4?$tvec1@N$01@glm@@QAEAAU01@ABU01@@Z		; glm::tvec1<double,2>::operator=
PUBLIC	??E?$tvec1@N$01@glm@@QAEAAU01@XZ		; glm::tvec1<double,2>::operator++
PUBLIC	??F?$tvec1@N$01@glm@@QAEAAU01@XZ		; glm::tvec1<double,2>::operator--
PUBLIC	??E?$tvec1@N$01@glm@@QAE?AU01@H@Z		; glm::tvec1<double,2>::operator++
PUBLIC	??F?$tvec1@N$01@glm@@QAE?AU01@H@Z		; glm::tvec1<double,2>::operator--
PUBLIC	?length@?$tvec1@E$00@glm@@SAHXZ			; glm::tvec1<unsigned char,1>::length
PUBLIC	??A?$tvec1@E$00@glm@@QAEAAEH@Z			; glm::tvec1<unsigned char,1>::operator[]
PUBLIC	??A?$tvec1@E$00@glm@@QBEABEH@Z			; glm::tvec1<unsigned char,1>::operator[]
PUBLIC	??0?$tvec1@E$00@glm@@QAE@XZ			; glm::tvec1<unsigned char,1>::tvec1<unsigned char,1>
PUBLIC	??0?$tvec1@E$00@glm@@QAE@ABU01@@Z		; glm::tvec1<unsigned char,1>::tvec1<unsigned char,1>
PUBLIC	??0?$tvec1@E$00@glm@@QAE@W4ctor@1@@Z		; glm::tvec1<unsigned char,1>::tvec1<unsigned char,1>
PUBLIC	??0?$tvec1@E$00@glm@@QAE@E@Z			; glm::tvec1<unsigned char,1>::tvec1<unsigned char,1>
PUBLIC	??4?$tvec1@E$00@glm@@QAEAAU01@ABU01@@Z		; glm::tvec1<unsigned char,1>::operator=
PUBLIC	??E?$tvec1@E$00@glm@@QAEAAU01@XZ		; glm::tvec1<unsigned char,1>::operator++
PUBLIC	??F?$tvec1@E$00@glm@@QAEAAU01@XZ		; glm::tvec1<unsigned char,1>::operator--
PUBLIC	??E?$tvec1@E$00@glm@@QAE?AU01@H@Z		; glm::tvec1<unsigned char,1>::operator++
PUBLIC	??F?$tvec1@E$00@glm@@QAE?AU01@H@Z		; glm::tvec1<unsigned char,1>::operator--
PUBLIC	?length@?$tvec1@G$00@glm@@SAHXZ			; glm::tvec1<unsigned short,1>::length
PUBLIC	??A?$tvec1@G$00@glm@@QAEAAGH@Z			; glm::tvec1<unsigned short,1>::operator[]
PUBLIC	??A?$tvec1@G$00@glm@@QBEABGH@Z			; glm::tvec1<unsigned short,1>::operator[]
PUBLIC	??0?$tvec1@G$00@glm@@QAE@XZ			; glm::tvec1<unsigned short,1>::tvec1<unsigned short,1>
PUBLIC	??0?$tvec1@G$00@glm@@QAE@ABU01@@Z		; glm::tvec1<unsigned short,1>::tvec1<unsigned short,1>
PUBLIC	??0?$tvec1@G$00@glm@@QAE@W4ctor@1@@Z		; glm::tvec1<unsigned short,1>::tvec1<unsigned short,1>
PUBLIC	??0?$tvec1@G$00@glm@@QAE@G@Z			; glm::tvec1<unsigned short,1>::tvec1<unsigned short,1>
PUBLIC	??4?$tvec1@G$00@glm@@QAEAAU01@ABU01@@Z		; glm::tvec1<unsigned short,1>::operator=
PUBLIC	??E?$tvec1@G$00@glm@@QAEAAU01@XZ		; glm::tvec1<unsigned short,1>::operator++
PUBLIC	??F?$tvec1@G$00@glm@@QAEAAU01@XZ		; glm::tvec1<unsigned short,1>::operator--
PUBLIC	??E?$tvec1@G$00@glm@@QAE?AU01@H@Z		; glm::tvec1<unsigned short,1>::operator++
PUBLIC	??F?$tvec1@G$00@glm@@QAE?AU01@H@Z		; glm::tvec1<unsigned short,1>::operator--
PUBLIC	?length@?$tvec1@I$00@glm@@SAHXZ			; glm::tvec1<unsigned int,1>::length
PUBLIC	??A?$tvec1@I$00@glm@@QAEAAIH@Z			; glm::tvec1<unsigned int,1>::operator[]
PUBLIC	??A?$tvec1@I$00@glm@@QBEABIH@Z			; glm::tvec1<unsigned int,1>::operator[]
PUBLIC	??0?$tvec1@I$00@glm@@QAE@XZ			; glm::tvec1<unsigned int,1>::tvec1<unsigned int,1>
PUBLIC	??0?$tvec1@I$00@glm@@QAE@ABU01@@Z		; glm::tvec1<unsigned int,1>::tvec1<unsigned int,1>
PUBLIC	??0?$tvec1@I$00@glm@@QAE@W4ctor@1@@Z		; glm::tvec1<unsigned int,1>::tvec1<unsigned int,1>
PUBLIC	??0?$tvec1@I$00@glm@@QAE@I@Z			; glm::tvec1<unsigned int,1>::tvec1<unsigned int,1>
PUBLIC	??4?$tvec1@I$00@glm@@QAEAAU01@ABU01@@Z		; glm::tvec1<unsigned int,1>::operator=
PUBLIC	??E?$tvec1@I$00@glm@@QAEAAU01@XZ		; glm::tvec1<unsigned int,1>::operator++
PUBLIC	??F?$tvec1@I$00@glm@@QAEAAU01@XZ		; glm::tvec1<unsigned int,1>::operator--
PUBLIC	??E?$tvec1@I$00@glm@@QAE?AU01@H@Z		; glm::tvec1<unsigned int,1>::operator++
PUBLIC	??F?$tvec1@I$00@glm@@QAE?AU01@H@Z		; glm::tvec1<unsigned int,1>::operator--
PUBLIC	?length@?$tvec1@_K$00@glm@@SAHXZ		; glm::tvec1<unsigned __int64,1>::length
PUBLIC	??A?$tvec1@_K$00@glm@@QAEAA_KH@Z		; glm::tvec1<unsigned __int64,1>::operator[]
PUBLIC	??A?$tvec1@_K$00@glm@@QBEAB_KH@Z		; glm::tvec1<unsigned __int64,1>::operator[]
PUBLIC	??0?$tvec1@_K$00@glm@@QAE@XZ			; glm::tvec1<unsigned __int64,1>::tvec1<unsigned __int64,1>
PUBLIC	??0?$tvec1@_K$00@glm@@QAE@ABU01@@Z		; glm::tvec1<unsigned __int64,1>::tvec1<unsigned __int64,1>
PUBLIC	??0?$tvec1@_K$00@glm@@QAE@W4ctor@1@@Z		; glm::tvec1<unsigned __int64,1>::tvec1<unsigned __int64,1>
PUBLIC	??0?$tvec1@_K$00@glm@@QAE@_K@Z			; glm::tvec1<unsigned __int64,1>::tvec1<unsigned __int64,1>
PUBLIC	??4?$tvec1@_K$00@glm@@QAEAAU01@ABU01@@Z		; glm::tvec1<unsigned __int64,1>::operator=
PUBLIC	??E?$tvec1@_K$00@glm@@QAEAAU01@XZ		; glm::tvec1<unsigned __int64,1>::operator++
PUBLIC	??F?$tvec1@_K$00@glm@@QAEAAU01@XZ		; glm::tvec1<unsigned __int64,1>::operator--
PUBLIC	??E?$tvec1@_K$00@glm@@QAE?AU01@H@Z		; glm::tvec1<unsigned __int64,1>::operator++
PUBLIC	??F?$tvec1@_K$00@glm@@QAE?AU01@H@Z		; glm::tvec1<unsigned __int64,1>::operator--
PUBLIC	?length@?$tvec1@C$00@glm@@SAHXZ			; glm::tvec1<signed char,1>::length
PUBLIC	??A?$tvec1@C$00@glm@@QAEAACH@Z			; glm::tvec1<signed char,1>::operator[]
PUBLIC	??A?$tvec1@C$00@glm@@QBEABCH@Z			; glm::tvec1<signed char,1>::operator[]
PUBLIC	??0?$tvec1@C$00@glm@@QAE@XZ			; glm::tvec1<signed char,1>::tvec1<signed char,1>
PUBLIC	??0?$tvec1@C$00@glm@@QAE@ABU01@@Z		; glm::tvec1<signed char,1>::tvec1<signed char,1>
PUBLIC	??0?$tvec1@C$00@glm@@QAE@W4ctor@1@@Z		; glm::tvec1<signed char,1>::tvec1<signed char,1>
PUBLIC	??0?$tvec1@C$00@glm@@QAE@C@Z			; glm::tvec1<signed char,1>::tvec1<signed char,1>
PUBLIC	??4?$tvec1@C$00@glm@@QAEAAU01@ABU01@@Z		; glm::tvec1<signed char,1>::operator=
PUBLIC	??E?$tvec1@C$00@glm@@QAEAAU01@XZ		; glm::tvec1<signed char,1>::operator++
PUBLIC	??F?$tvec1@C$00@glm@@QAEAAU01@XZ		; glm::tvec1<signed char,1>::operator--
PUBLIC	??E?$tvec1@C$00@glm@@QAE?AU01@H@Z		; glm::tvec1<signed char,1>::operator++
PUBLIC	??F?$tvec1@C$00@glm@@QAE?AU01@H@Z		; glm::tvec1<signed char,1>::operator--
PUBLIC	?length@?$tvec1@F$00@glm@@SAHXZ			; glm::tvec1<short,1>::length
PUBLIC	??A?$tvec1@F$00@glm@@QAEAAFH@Z			; glm::tvec1<short,1>::operator[]
PUBLIC	??A?$tvec1@F$00@glm@@QBEABFH@Z			; glm::tvec1<short,1>::operator[]
PUBLIC	??0?$tvec1@F$00@glm@@QAE@XZ			; glm::tvec1<short,1>::tvec1<short,1>
PUBLIC	??0?$tvec1@F$00@glm@@QAE@ABU01@@Z		; glm::tvec1<short,1>::tvec1<short,1>
PUBLIC	??0?$tvec1@F$00@glm@@QAE@W4ctor@1@@Z		; glm::tvec1<short,1>::tvec1<short,1>
PUBLIC	??0?$tvec1@F$00@glm@@QAE@F@Z			; glm::tvec1<short,1>::tvec1<short,1>
PUBLIC	??4?$tvec1@F$00@glm@@QAEAAU01@ABU01@@Z		; glm::tvec1<short,1>::operator=
PUBLIC	??E?$tvec1@F$00@glm@@QAEAAU01@XZ		; glm::tvec1<short,1>::operator++
PUBLIC	??F?$tvec1@F$00@glm@@QAEAAU01@XZ		; glm::tvec1<short,1>::operator--
PUBLIC	??E?$tvec1@F$00@glm@@QAE?AU01@H@Z		; glm::tvec1<short,1>::operator++
PUBLIC	??F?$tvec1@F$00@glm@@QAE?AU01@H@Z		; glm::tvec1<short,1>::operator--
PUBLIC	?length@?$tvec1@H$00@glm@@SAHXZ			; glm::tvec1<int,1>::length
PUBLIC	??A?$tvec1@H$00@glm@@QAEAAHH@Z			; glm::tvec1<int,1>::operator[]
PUBLIC	??A?$tvec1@H$00@glm@@QBEABHH@Z			; glm::tvec1<int,1>::operator[]
PUBLIC	??0?$tvec1@H$00@glm@@QAE@XZ			; glm::tvec1<int,1>::tvec1<int,1>
PUBLIC	??0?$tvec1@H$00@glm@@QAE@ABU01@@Z		; glm::tvec1<int,1>::tvec1<int,1>
PUBLIC	??0?$tvec1@H$00@glm@@QAE@W4ctor@1@@Z		; glm::tvec1<int,1>::tvec1<int,1>
PUBLIC	??0?$tvec1@H$00@glm@@QAE@H@Z			; glm::tvec1<int,1>::tvec1<int,1>
PUBLIC	??4?$tvec1@H$00@glm@@QAEAAU01@ABU01@@Z		; glm::tvec1<int,1>::operator=
PUBLIC	??E?$tvec1@H$00@glm@@QAEAAU01@XZ		; glm::tvec1<int,1>::operator++
PUBLIC	??F?$tvec1@H$00@glm@@QAEAAU01@XZ		; glm::tvec1<int,1>::operator--
PUBLIC	??E?$tvec1@H$00@glm@@QAE?AU01@H@Z		; glm::tvec1<int,1>::operator++
PUBLIC	??F?$tvec1@H$00@glm@@QAE?AU01@H@Z		; glm::tvec1<int,1>::operator--
PUBLIC	?length@?$tvec1@_J$00@glm@@SAHXZ		; glm::tvec1<__int64,1>::length
PUBLIC	??A?$tvec1@_J$00@glm@@QAEAA_JH@Z		; glm::tvec1<__int64,1>::operator[]
PUBLIC	??A?$tvec1@_J$00@glm@@QBEAB_JH@Z		; glm::tvec1<__int64,1>::operator[]
PUBLIC	??0?$tvec1@_J$00@glm@@QAE@XZ			; glm::tvec1<__int64,1>::tvec1<__int64,1>
PUBLIC	??0?$tvec1@_J$00@glm@@QAE@ABU01@@Z		; glm::tvec1<__int64,1>::tvec1<__int64,1>
PUBLIC	??0?$tvec1@_J$00@glm@@QAE@W4ctor@1@@Z		; glm::tvec1<__int64,1>::tvec1<__int64,1>
PUBLIC	??0?$tvec1@_J$00@glm@@QAE@_J@Z			; glm::tvec1<__int64,1>::tvec1<__int64,1>
PUBLIC	??4?$tvec1@_J$00@glm@@QAEAAU01@ABU01@@Z		; glm::tvec1<__int64,1>::operator=
PUBLIC	??E?$tvec1@_J$00@glm@@QAEAAU01@XZ		; glm::tvec1<__int64,1>::operator++
PUBLIC	??F?$tvec1@_J$00@glm@@QAEAAU01@XZ		; glm::tvec1<__int64,1>::operator--
PUBLIC	??E?$tvec1@_J$00@glm@@QAE?AU01@H@Z		; glm::tvec1<__int64,1>::operator++
PUBLIC	??F?$tvec1@_J$00@glm@@QAE?AU01@H@Z		; glm::tvec1<__int64,1>::operator--
PUBLIC	?length@?$tvec1@M$00@glm@@SAHXZ			; glm::tvec1<float,1>::length
PUBLIC	??A?$tvec1@M$00@glm@@QAEAAMH@Z			; glm::tvec1<float,1>::operator[]
PUBLIC	??A?$tvec1@M$00@glm@@QBEABMH@Z			; glm::tvec1<float,1>::operator[]
PUBLIC	??0?$tvec1@M$00@glm@@QAE@XZ			; glm::tvec1<float,1>::tvec1<float,1>
PUBLIC	??0?$tvec1@M$00@glm@@QAE@ABU01@@Z		; glm::tvec1<float,1>::tvec1<float,1>
PUBLIC	??0?$tvec1@M$00@glm@@QAE@W4ctor@1@@Z		; glm::tvec1<float,1>::tvec1<float,1>
PUBLIC	??0?$tvec1@M$00@glm@@QAE@M@Z			; glm::tvec1<float,1>::tvec1<float,1>
PUBLIC	??4?$tvec1@M$00@glm@@QAEAAU01@ABU01@@Z		; glm::tvec1<float,1>::operator=
PUBLIC	??E?$tvec1@M$00@glm@@QAEAAU01@XZ		; glm::tvec1<float,1>::operator++
PUBLIC	??F?$tvec1@M$00@glm@@QAEAAU01@XZ		; glm::tvec1<float,1>::operator--
PUBLIC	??E?$tvec1@M$00@glm@@QAE?AU01@H@Z		; glm::tvec1<float,1>::operator++
PUBLIC	??F?$tvec1@M$00@glm@@QAE?AU01@H@Z		; glm::tvec1<float,1>::operator--
PUBLIC	?length@?$tvec1@N$00@glm@@SAHXZ			; glm::tvec1<double,1>::length
PUBLIC	??A?$tvec1@N$00@glm@@QAEAANH@Z			; glm::tvec1<double,1>::operator[]
PUBLIC	??A?$tvec1@N$00@glm@@QBEABNH@Z			; glm::tvec1<double,1>::operator[]
PUBLIC	??0?$tvec1@N$00@glm@@QAE@XZ			; glm::tvec1<double,1>::tvec1<double,1>
PUBLIC	??0?$tvec1@N$00@glm@@QAE@ABU01@@Z		; glm::tvec1<double,1>::tvec1<double,1>
PUBLIC	??0?$tvec1@N$00@glm@@QAE@W4ctor@1@@Z		; glm::tvec1<double,1>::tvec1<double,1>
PUBLIC	??0?$tvec1@N$00@glm@@QAE@N@Z			; glm::tvec1<double,1>::tvec1<double,1>
PUBLIC	??4?$tvec1@N$00@glm@@QAEAAU01@ABU01@@Z		; glm::tvec1<double,1>::operator=
PUBLIC	??E?$tvec1@N$00@glm@@QAEAAU01@XZ		; glm::tvec1<double,1>::operator++
PUBLIC	??F?$tvec1@N$00@glm@@QAEAAU01@XZ		; glm::tvec1<double,1>::operator--
PUBLIC	??E?$tvec1@N$00@glm@@QAE?AU01@H@Z		; glm::tvec1<double,1>::operator++
PUBLIC	??F?$tvec1@N$00@glm@@QAE?AU01@H@Z		; glm::tvec1<double,1>::operator--
PUBLIC	?length@?$tvec1@E$0A@@glm@@SAHXZ		; glm::tvec1<unsigned char,0>::length
PUBLIC	??A?$tvec1@E$0A@@glm@@QAEAAEH@Z			; glm::tvec1<unsigned char,0>::operator[]
PUBLIC	??A?$tvec1@E$0A@@glm@@QBEABEH@Z			; glm::tvec1<unsigned char,0>::operator[]
PUBLIC	??0?$tvec1@E$0A@@glm@@QAE@XZ			; glm::tvec1<unsigned char,0>::tvec1<unsigned char,0>
PUBLIC	??0?$tvec1@E$0A@@glm@@QAE@ABU01@@Z		; glm::tvec1<unsigned char,0>::tvec1<unsigned char,0>
PUBLIC	??0?$tvec1@E$0A@@glm@@QAE@W4ctor@1@@Z		; glm::tvec1<unsigned char,0>::tvec1<unsigned char,0>
PUBLIC	??0?$tvec1@E$0A@@glm@@QAE@E@Z			; glm::tvec1<unsigned char,0>::tvec1<unsigned char,0>
PUBLIC	??4?$tvec1@E$0A@@glm@@QAEAAU01@ABU01@@Z		; glm::tvec1<unsigned char,0>::operator=
PUBLIC	??E?$tvec1@E$0A@@glm@@QAEAAU01@XZ		; glm::tvec1<unsigned char,0>::operator++
PUBLIC	??F?$tvec1@E$0A@@glm@@QAEAAU01@XZ		; glm::tvec1<unsigned char,0>::operator--
PUBLIC	??E?$tvec1@E$0A@@glm@@QAE?AU01@H@Z		; glm::tvec1<unsigned char,0>::operator++
PUBLIC	??F?$tvec1@E$0A@@glm@@QAE?AU01@H@Z		; glm::tvec1<unsigned char,0>::operator--
PUBLIC	?length@?$tvec1@G$0A@@glm@@SAHXZ		; glm::tvec1<unsigned short,0>::length
PUBLIC	??A?$tvec1@G$0A@@glm@@QAEAAGH@Z			; glm::tvec1<unsigned short,0>::operator[]
PUBLIC	??A?$tvec1@G$0A@@glm@@QBEABGH@Z			; glm::tvec1<unsigned short,0>::operator[]
PUBLIC	??0?$tvec1@G$0A@@glm@@QAE@XZ			; glm::tvec1<unsigned short,0>::tvec1<unsigned short,0>
PUBLIC	??0?$tvec1@G$0A@@glm@@QAE@ABU01@@Z		; glm::tvec1<unsigned short,0>::tvec1<unsigned short,0>
PUBLIC	??0?$tvec1@G$0A@@glm@@QAE@W4ctor@1@@Z		; glm::tvec1<unsigned short,0>::tvec1<unsigned short,0>
PUBLIC	??0?$tvec1@G$0A@@glm@@QAE@G@Z			; glm::tvec1<unsigned short,0>::tvec1<unsigned short,0>
PUBLIC	??4?$tvec1@G$0A@@glm@@QAEAAU01@ABU01@@Z		; glm::tvec1<unsigned short,0>::operator=
PUBLIC	??E?$tvec1@G$0A@@glm@@QAEAAU01@XZ		; glm::tvec1<unsigned short,0>::operator++
PUBLIC	??F?$tvec1@G$0A@@glm@@QAEAAU01@XZ		; glm::tvec1<unsigned short,0>::operator--
PUBLIC	??E?$tvec1@G$0A@@glm@@QAE?AU01@H@Z		; glm::tvec1<unsigned short,0>::operator++
PUBLIC	??F?$tvec1@G$0A@@glm@@QAE?AU01@H@Z		; glm::tvec1<unsigned short,0>::operator--
PUBLIC	?length@?$tvec1@I$0A@@glm@@SAHXZ		; glm::tvec1<unsigned int,0>::length
PUBLIC	??A?$tvec1@I$0A@@glm@@QAEAAIH@Z			; glm::tvec1<unsigned int,0>::operator[]
PUBLIC	??A?$tvec1@I$0A@@glm@@QBEABIH@Z			; glm::tvec1<unsigned int,0>::operator[]
PUBLIC	??0?$tvec1@I$0A@@glm@@QAE@XZ			; glm::tvec1<unsigned int,0>::tvec1<unsigned int,0>
PUBLIC	??0?$tvec1@I$0A@@glm@@QAE@ABU01@@Z		; glm::tvec1<unsigned int,0>::tvec1<unsigned int,0>
PUBLIC	??0?$tvec1@I$0A@@glm@@QAE@W4ctor@1@@Z		; glm::tvec1<unsigned int,0>::tvec1<unsigned int,0>
PUBLIC	??0?$tvec1@I$0A@@glm@@QAE@I@Z			; glm::tvec1<unsigned int,0>::tvec1<unsigned int,0>
PUBLIC	??4?$tvec1@I$0A@@glm@@QAEAAU01@ABU01@@Z		; glm::tvec1<unsigned int,0>::operator=
PUBLIC	??E?$tvec1@I$0A@@glm@@QAEAAU01@XZ		; glm::tvec1<unsigned int,0>::operator++
PUBLIC	??F?$tvec1@I$0A@@glm@@QAEAAU01@XZ		; glm::tvec1<unsigned int,0>::operator--
PUBLIC	??E?$tvec1@I$0A@@glm@@QAE?AU01@H@Z		; glm::tvec1<unsigned int,0>::operator++
PUBLIC	??F?$tvec1@I$0A@@glm@@QAE?AU01@H@Z		; glm::tvec1<unsigned int,0>::operator--
PUBLIC	?length@?$tvec1@_K$0A@@glm@@SAHXZ		; glm::tvec1<unsigned __int64,0>::length
PUBLIC	??A?$tvec1@_K$0A@@glm@@QAEAA_KH@Z		; glm::tvec1<unsigned __int64,0>::operator[]
PUBLIC	??A?$tvec1@_K$0A@@glm@@QBEAB_KH@Z		; glm::tvec1<unsigned __int64,0>::operator[]
PUBLIC	??0?$tvec1@_K$0A@@glm@@QAE@XZ			; glm::tvec1<unsigned __int64,0>::tvec1<unsigned __int64,0>
PUBLIC	??0?$tvec1@_K$0A@@glm@@QAE@ABU01@@Z		; glm::tvec1<unsigned __int64,0>::tvec1<unsigned __int64,0>
PUBLIC	??0?$tvec1@_K$0A@@glm@@QAE@W4ctor@1@@Z		; glm::tvec1<unsigned __int64,0>::tvec1<unsigned __int64,0>
PUBLIC	??0?$tvec1@_K$0A@@glm@@QAE@_K@Z			; glm::tvec1<unsigned __int64,0>::tvec1<unsigned __int64,0>
PUBLIC	??4?$tvec1@_K$0A@@glm@@QAEAAU01@ABU01@@Z	; glm::tvec1<unsigned __int64,0>::operator=
PUBLIC	??E?$tvec1@_K$0A@@glm@@QAEAAU01@XZ		; glm::tvec1<unsigned __int64,0>::operator++
PUBLIC	??F?$tvec1@_K$0A@@glm@@QAEAAU01@XZ		; glm::tvec1<unsigned __int64,0>::operator--
PUBLIC	??E?$tvec1@_K$0A@@glm@@QAE?AU01@H@Z		; glm::tvec1<unsigned __int64,0>::operator++
PUBLIC	??F?$tvec1@_K$0A@@glm@@QAE?AU01@H@Z		; glm::tvec1<unsigned __int64,0>::operator--
PUBLIC	?length@?$tvec1@C$0A@@glm@@SAHXZ		; glm::tvec1<signed char,0>::length
PUBLIC	??A?$tvec1@C$0A@@glm@@QAEAACH@Z			; glm::tvec1<signed char,0>::operator[]
PUBLIC	??A?$tvec1@C$0A@@glm@@QBEABCH@Z			; glm::tvec1<signed char,0>::operator[]
PUBLIC	??0?$tvec1@C$0A@@glm@@QAE@XZ			; glm::tvec1<signed char,0>::tvec1<signed char,0>
PUBLIC	??0?$tvec1@C$0A@@glm@@QAE@ABU01@@Z		; glm::tvec1<signed char,0>::tvec1<signed char,0>
PUBLIC	??0?$tvec1@C$0A@@glm@@QAE@W4ctor@1@@Z		; glm::tvec1<signed char,0>::tvec1<signed char,0>
PUBLIC	??0?$tvec1@C$0A@@glm@@QAE@C@Z			; glm::tvec1<signed char,0>::tvec1<signed char,0>
PUBLIC	??4?$tvec1@C$0A@@glm@@QAEAAU01@ABU01@@Z		; glm::tvec1<signed char,0>::operator=
PUBLIC	??E?$tvec1@C$0A@@glm@@QAEAAU01@XZ		; glm::tvec1<signed char,0>::operator++
PUBLIC	??F?$tvec1@C$0A@@glm@@QAEAAU01@XZ		; glm::tvec1<signed char,0>::operator--
PUBLIC	??E?$tvec1@C$0A@@glm@@QAE?AU01@H@Z		; glm::tvec1<signed char,0>::operator++
PUBLIC	??F?$tvec1@C$0A@@glm@@QAE?AU01@H@Z		; glm::tvec1<signed char,0>::operator--
PUBLIC	?length@?$tvec1@F$0A@@glm@@SAHXZ		; glm::tvec1<short,0>::length
PUBLIC	??A?$tvec1@F$0A@@glm@@QAEAAFH@Z			; glm::tvec1<short,0>::operator[]
PUBLIC	??A?$tvec1@F$0A@@glm@@QBEABFH@Z			; glm::tvec1<short,0>::operator[]
PUBLIC	??0?$tvec1@F$0A@@glm@@QAE@XZ			; glm::tvec1<short,0>::tvec1<short,0>
PUBLIC	??0?$tvec1@F$0A@@glm@@QAE@ABU01@@Z		; glm::tvec1<short,0>::tvec1<short,0>
PUBLIC	??0?$tvec1@F$0A@@glm@@QAE@W4ctor@1@@Z		; glm::tvec1<short,0>::tvec1<short,0>
PUBLIC	??0?$tvec1@F$0A@@glm@@QAE@F@Z			; glm::tvec1<short,0>::tvec1<short,0>
PUBLIC	??4?$tvec1@F$0A@@glm@@QAEAAU01@ABU01@@Z		; glm::tvec1<short,0>::operator=
PUBLIC	??E?$tvec1@F$0A@@glm@@QAEAAU01@XZ		; glm::tvec1<short,0>::operator++
PUBLIC	??F?$tvec1@F$0A@@glm@@QAEAAU01@XZ		; glm::tvec1<short,0>::operator--
PUBLIC	??E?$tvec1@F$0A@@glm@@QAE?AU01@H@Z		; glm::tvec1<short,0>::operator++
PUBLIC	??F?$tvec1@F$0A@@glm@@QAE?AU01@H@Z		; glm::tvec1<short,0>::operator--
PUBLIC	?length@?$tvec1@H$0A@@glm@@SAHXZ		; glm::tvec1<int,0>::length
PUBLIC	??A?$tvec1@H$0A@@glm@@QAEAAHH@Z			; glm::tvec1<int,0>::operator[]
PUBLIC	??A?$tvec1@H$0A@@glm@@QBEABHH@Z			; glm::tvec1<int,0>::operator[]
PUBLIC	??0?$tvec1@H$0A@@glm@@QAE@XZ			; glm::tvec1<int,0>::tvec1<int,0>
PUBLIC	??0?$tvec1@H$0A@@glm@@QAE@ABU01@@Z		; glm::tvec1<int,0>::tvec1<int,0>
PUBLIC	??0?$tvec1@H$0A@@glm@@QAE@W4ctor@1@@Z		; glm::tvec1<int,0>::tvec1<int,0>
PUBLIC	??0?$tvec1@H$0A@@glm@@QAE@H@Z			; glm::tvec1<int,0>::tvec1<int,0>
PUBLIC	??4?$tvec1@H$0A@@glm@@QAEAAU01@ABU01@@Z		; glm::tvec1<int,0>::operator=
PUBLIC	??E?$tvec1@H$0A@@glm@@QAEAAU01@XZ		; glm::tvec1<int,0>::operator++
PUBLIC	??F?$tvec1@H$0A@@glm@@QAEAAU01@XZ		; glm::tvec1<int,0>::operator--
PUBLIC	??E?$tvec1@H$0A@@glm@@QAE?AU01@H@Z		; glm::tvec1<int,0>::operator++
PUBLIC	??F?$tvec1@H$0A@@glm@@QAE?AU01@H@Z		; glm::tvec1<int,0>::operator--
PUBLIC	?length@?$tvec1@_J$0A@@glm@@SAHXZ		; glm::tvec1<__int64,0>::length
PUBLIC	??A?$tvec1@_J$0A@@glm@@QAEAA_JH@Z		; glm::tvec1<__int64,0>::operator[]
PUBLIC	??A?$tvec1@_J$0A@@glm@@QBEAB_JH@Z		; glm::tvec1<__int64,0>::operator[]
PUBLIC	??0?$tvec1@_J$0A@@glm@@QAE@XZ			; glm::tvec1<__int64,0>::tvec1<__int64,0>
PUBLIC	??0?$tvec1@_J$0A@@glm@@QAE@ABU01@@Z		; glm::tvec1<__int64,0>::tvec1<__int64,0>
PUBLIC	??0?$tvec1@_J$0A@@glm@@QAE@W4ctor@1@@Z		; glm::tvec1<__int64,0>::tvec1<__int64,0>
PUBLIC	??0?$tvec1@_J$0A@@glm@@QAE@_J@Z			; glm::tvec1<__int64,0>::tvec1<__int64,0>
PUBLIC	??4?$tvec1@_J$0A@@glm@@QAEAAU01@ABU01@@Z	; glm::tvec1<__int64,0>::operator=
PUBLIC	??E?$tvec1@_J$0A@@glm@@QAEAAU01@XZ		; glm::tvec1<__int64,0>::operator++
PUBLIC	??F?$tvec1@_J$0A@@glm@@QAEAAU01@XZ		; glm::tvec1<__int64,0>::operator--
PUBLIC	??E?$tvec1@_J$0A@@glm@@QAE?AU01@H@Z		; glm::tvec1<__int64,0>::operator++
PUBLIC	??F?$tvec1@_J$0A@@glm@@QAE?AU01@H@Z		; glm::tvec1<__int64,0>::operator--
PUBLIC	?length@?$tvec1@M$0A@@glm@@SAHXZ		; glm::tvec1<float,0>::length
PUBLIC	??A?$tvec1@M$0A@@glm@@QAEAAMH@Z			; glm::tvec1<float,0>::operator[]
PUBLIC	??A?$tvec1@M$0A@@glm@@QBEABMH@Z			; glm::tvec1<float,0>::operator[]
PUBLIC	??0?$tvec1@M$0A@@glm@@QAE@XZ			; glm::tvec1<float,0>::tvec1<float,0>
PUBLIC	??0?$tvec1@M$0A@@glm@@QAE@ABU01@@Z		; glm::tvec1<float,0>::tvec1<float,0>
PUBLIC	??0?$tvec1@M$0A@@glm@@QAE@W4ctor@1@@Z		; glm::tvec1<float,0>::tvec1<float,0>
PUBLIC	??0?$tvec1@M$0A@@glm@@QAE@M@Z			; glm::tvec1<float,0>::tvec1<float,0>
PUBLIC	??4?$tvec1@M$0A@@glm@@QAEAAU01@ABU01@@Z		; glm::tvec1<float,0>::operator=
PUBLIC	??E?$tvec1@M$0A@@glm@@QAEAAU01@XZ		; glm::tvec1<float,0>::operator++
PUBLIC	??F?$tvec1@M$0A@@glm@@QAEAAU01@XZ		; glm::tvec1<float,0>::operator--
PUBLIC	??E?$tvec1@M$0A@@glm@@QAE?AU01@H@Z		; glm::tvec1<float,0>::operator++
PUBLIC	??F?$tvec1@M$0A@@glm@@QAE?AU01@H@Z		; glm::tvec1<float,0>::operator--
PUBLIC	?length@?$tvec1@N$0A@@glm@@SAHXZ		; glm::tvec1<double,0>::length
PUBLIC	??A?$tvec1@N$0A@@glm@@QAEAANH@Z			; glm::tvec1<double,0>::operator[]
PUBLIC	??A?$tvec1@N$0A@@glm@@QBEABNH@Z			; glm::tvec1<double,0>::operator[]
PUBLIC	??0?$tvec1@N$0A@@glm@@QAE@XZ			; glm::tvec1<double,0>::tvec1<double,0>
PUBLIC	??0?$tvec1@N$0A@@glm@@QAE@ABU01@@Z		; glm::tvec1<double,0>::tvec1<double,0>
PUBLIC	??0?$tvec1@N$0A@@glm@@QAE@W4ctor@1@@Z		; glm::tvec1<double,0>::tvec1<double,0>
PUBLIC	??0?$tvec1@N$0A@@glm@@QAE@N@Z			; glm::tvec1<double,0>::tvec1<double,0>
PUBLIC	??4?$tvec1@N$0A@@glm@@QAEAAU01@ABU01@@Z		; glm::tvec1<double,0>::operator=
PUBLIC	??E?$tvec1@N$0A@@glm@@QAEAAU01@XZ		; glm::tvec1<double,0>::operator++
PUBLIC	??F?$tvec1@N$0A@@glm@@QAEAAU01@XZ		; glm::tvec1<double,0>::operator--
PUBLIC	??E?$tvec1@N$0A@@glm@@QAE?AU01@H@Z		; glm::tvec1<double,0>::operator++
PUBLIC	??F?$tvec1@N$0A@@glm@@QAE?AU01@H@Z		; glm::tvec1<double,0>::operator--
PUBLIC	?length@?$tvec2@E$01@glm@@SAHXZ			; glm::tvec2<unsigned char,2>::length
PUBLIC	??A?$tvec2@E$01@glm@@QAEAAEH@Z			; glm::tvec2<unsigned char,2>::operator[]
PUBLIC	??A?$tvec2@E$01@glm@@QBEABEH@Z			; glm::tvec2<unsigned char,2>::operator[]
PUBLIC	??0?$tvec2@E$01@glm@@QAE@XZ			; glm::tvec2<unsigned char,2>::tvec2<unsigned char,2>
PUBLIC	??0?$tvec2@E$01@glm@@QAE@ABU01@@Z		; glm::tvec2<unsigned char,2>::tvec2<unsigned char,2>
PUBLIC	??0?$tvec2@E$01@glm@@QAE@W4ctor@1@@Z		; glm::tvec2<unsigned char,2>::tvec2<unsigned char,2>
PUBLIC	??0?$tvec2@E$01@glm@@QAE@E@Z			; glm::tvec2<unsigned char,2>::tvec2<unsigned char,2>
PUBLIC	??0?$tvec2@E$01@glm@@QAE@EE@Z			; glm::tvec2<unsigned char,2>::tvec2<unsigned char,2>
PUBLIC	??4?$tvec2@E$01@glm@@QAEAAU01@ABU01@@Z		; glm::tvec2<unsigned char,2>::operator=
PUBLIC	??E?$tvec2@E$01@glm@@QAEAAU01@XZ		; glm::tvec2<unsigned char,2>::operator++
PUBLIC	??F?$tvec2@E$01@glm@@QAEAAU01@XZ		; glm::tvec2<unsigned char,2>::operator--
PUBLIC	??E?$tvec2@E$01@glm@@QAE?AU01@H@Z		; glm::tvec2<unsigned char,2>::operator++
PUBLIC	??F?$tvec2@E$01@glm@@QAE?AU01@H@Z		; glm::tvec2<unsigned char,2>::operator--
PUBLIC	?length@?$tvec2@G$01@glm@@SAHXZ			; glm::tvec2<unsigned short,2>::length
PUBLIC	??A?$tvec2@G$01@glm@@QAEAAGH@Z			; glm::tvec2<unsigned short,2>::operator[]
PUBLIC	??A?$tvec2@G$01@glm@@QBEABGH@Z			; glm::tvec2<unsigned short,2>::operator[]
PUBLIC	??0?$tvec2@G$01@glm@@QAE@XZ			; glm::tvec2<unsigned short,2>::tvec2<unsigned short,2>
PUBLIC	??0?$tvec2@G$01@glm@@QAE@ABU01@@Z		; glm::tvec2<unsigned short,2>::tvec2<unsigned short,2>
PUBLIC	??0?$tvec2@G$01@glm@@QAE@W4ctor@1@@Z		; glm::tvec2<unsigned short,2>::tvec2<unsigned short,2>
PUBLIC	??0?$tvec2@G$01@glm@@QAE@G@Z			; glm::tvec2<unsigned short,2>::tvec2<unsigned short,2>
PUBLIC	??0?$tvec2@G$01@glm@@QAE@GG@Z			; glm::tvec2<unsigned short,2>::tvec2<unsigned short,2>
PUBLIC	??4?$tvec2@G$01@glm@@QAEAAU01@ABU01@@Z		; glm::tvec2<unsigned short,2>::operator=
PUBLIC	??E?$tvec2@G$01@glm@@QAEAAU01@XZ		; glm::tvec2<unsigned short,2>::operator++
PUBLIC	??F?$tvec2@G$01@glm@@QAEAAU01@XZ		; glm::tvec2<unsigned short,2>::operator--
PUBLIC	??E?$tvec2@G$01@glm@@QAE?AU01@H@Z		; glm::tvec2<unsigned short,2>::operator++
PUBLIC	??F?$tvec2@G$01@glm@@QAE?AU01@H@Z		; glm::tvec2<unsigned short,2>::operator--
PUBLIC	?length@?$tvec2@I$01@glm@@SAHXZ			; glm::tvec2<unsigned int,2>::length
PUBLIC	??A?$tvec2@I$01@glm@@QAEAAIH@Z			; glm::tvec2<unsigned int,2>::operator[]
PUBLIC	??A?$tvec2@I$01@glm@@QBEABIH@Z			; glm::tvec2<unsigned int,2>::operator[]
PUBLIC	??0?$tvec2@I$01@glm@@QAE@XZ			; glm::tvec2<unsigned int,2>::tvec2<unsigned int,2>
PUBLIC	??0?$tvec2@I$01@glm@@QAE@ABU01@@Z		; glm::tvec2<unsigned int,2>::tvec2<unsigned int,2>
PUBLIC	??0?$tvec2@I$01@glm@@QAE@W4ctor@1@@Z		; glm::tvec2<unsigned int,2>::tvec2<unsigned int,2>
PUBLIC	??0?$tvec2@I$01@glm@@QAE@I@Z			; glm::tvec2<unsigned int,2>::tvec2<unsigned int,2>
PUBLIC	??0?$tvec2@I$01@glm@@QAE@II@Z			; glm::tvec2<unsigned int,2>::tvec2<unsigned int,2>
PUBLIC	??4?$tvec2@I$01@glm@@QAEAAU01@ABU01@@Z		; glm::tvec2<unsigned int,2>::operator=
PUBLIC	??E?$tvec2@I$01@glm@@QAEAAU01@XZ		; glm::tvec2<unsigned int,2>::operator++
PUBLIC	??F?$tvec2@I$01@glm@@QAEAAU01@XZ		; glm::tvec2<unsigned int,2>::operator--
PUBLIC	??E?$tvec2@I$01@glm@@QAE?AU01@H@Z		; glm::tvec2<unsigned int,2>::operator++
PUBLIC	??F?$tvec2@I$01@glm@@QAE?AU01@H@Z		; glm::tvec2<unsigned int,2>::operator--
PUBLIC	?length@?$tvec2@_K$01@glm@@SAHXZ		; glm::tvec2<unsigned __int64,2>::length
PUBLIC	??A?$tvec2@_K$01@glm@@QAEAA_KH@Z		; glm::tvec2<unsigned __int64,2>::operator[]
PUBLIC	??A?$tvec2@_K$01@glm@@QBEAB_KH@Z		; glm::tvec2<unsigned __int64,2>::operator[]
PUBLIC	??0?$tvec2@_K$01@glm@@QAE@XZ			; glm::tvec2<unsigned __int64,2>::tvec2<unsigned __int64,2>
PUBLIC	??0?$tvec2@_K$01@glm@@QAE@ABU01@@Z		; glm::tvec2<unsigned __int64,2>::tvec2<unsigned __int64,2>
PUBLIC	??0?$tvec2@_K$01@glm@@QAE@W4ctor@1@@Z		; glm::tvec2<unsigned __int64,2>::tvec2<unsigned __int64,2>
PUBLIC	??0?$tvec2@_K$01@glm@@QAE@_K@Z			; glm::tvec2<unsigned __int64,2>::tvec2<unsigned __int64,2>
PUBLIC	??0?$tvec2@_K$01@glm@@QAE@_K0@Z			; glm::tvec2<unsigned __int64,2>::tvec2<unsigned __int64,2>
PUBLIC	??4?$tvec2@_K$01@glm@@QAEAAU01@ABU01@@Z		; glm::tvec2<unsigned __int64,2>::operator=
PUBLIC	??E?$tvec2@_K$01@glm@@QAEAAU01@XZ		; glm::tvec2<unsigned __int64,2>::operator++
PUBLIC	??F?$tvec2@_K$01@glm@@QAEAAU01@XZ		; glm::tvec2<unsigned __int64,2>::operator--
PUBLIC	??E?$tvec2@_K$01@glm@@QAE?AU01@H@Z		; glm::tvec2<unsigned __int64,2>::operator++
PUBLIC	??F?$tvec2@_K$01@glm@@QAE?AU01@H@Z		; glm::tvec2<unsigned __int64,2>::operator--
PUBLIC	?length@?$tvec2@C$01@glm@@SAHXZ			; glm::tvec2<signed char,2>::length
PUBLIC	??A?$tvec2@C$01@glm@@QAEAACH@Z			; glm::tvec2<signed char,2>::operator[]
PUBLIC	??A?$tvec2@C$01@glm@@QBEABCH@Z			; glm::tvec2<signed char,2>::operator[]
PUBLIC	??0?$tvec2@C$01@glm@@QAE@XZ			; glm::tvec2<signed char,2>::tvec2<signed char,2>
PUBLIC	??0?$tvec2@C$01@glm@@QAE@ABU01@@Z		; glm::tvec2<signed char,2>::tvec2<signed char,2>
PUBLIC	??0?$tvec2@C$01@glm@@QAE@W4ctor@1@@Z		; glm::tvec2<signed char,2>::tvec2<signed char,2>
PUBLIC	??0?$tvec2@C$01@glm@@QAE@C@Z			; glm::tvec2<signed char,2>::tvec2<signed char,2>
PUBLIC	??0?$tvec2@C$01@glm@@QAE@CC@Z			; glm::tvec2<signed char,2>::tvec2<signed char,2>
PUBLIC	??4?$tvec2@C$01@glm@@QAEAAU01@ABU01@@Z		; glm::tvec2<signed char,2>::operator=
PUBLIC	??E?$tvec2@C$01@glm@@QAEAAU01@XZ		; glm::tvec2<signed char,2>::operator++
PUBLIC	??F?$tvec2@C$01@glm@@QAEAAU01@XZ		; glm::tvec2<signed char,2>::operator--
PUBLIC	??E?$tvec2@C$01@glm@@QAE?AU01@H@Z		; glm::tvec2<signed char,2>::operator++
PUBLIC	??F?$tvec2@C$01@glm@@QAE?AU01@H@Z		; glm::tvec2<signed char,2>::operator--
PUBLIC	?length@?$tvec2@F$01@glm@@SAHXZ			; glm::tvec2<short,2>::length
PUBLIC	??A?$tvec2@F$01@glm@@QAEAAFH@Z			; glm::tvec2<short,2>::operator[]
PUBLIC	??A?$tvec2@F$01@glm@@QBEABFH@Z			; glm::tvec2<short,2>::operator[]
PUBLIC	??0?$tvec2@F$01@glm@@QAE@XZ			; glm::tvec2<short,2>::tvec2<short,2>
PUBLIC	??0?$tvec2@F$01@glm@@QAE@ABU01@@Z		; glm::tvec2<short,2>::tvec2<short,2>
PUBLIC	??0?$tvec2@F$01@glm@@QAE@W4ctor@1@@Z		; glm::tvec2<short,2>::tvec2<short,2>
PUBLIC	??0?$tvec2@F$01@glm@@QAE@F@Z			; glm::tvec2<short,2>::tvec2<short,2>
PUBLIC	??0?$tvec2@F$01@glm@@QAE@FF@Z			; glm::tvec2<short,2>::tvec2<short,2>
PUBLIC	??4?$tvec2@F$01@glm@@QAEAAU01@ABU01@@Z		; glm::tvec2<short,2>::operator=
PUBLIC	??E?$tvec2@F$01@glm@@QAEAAU01@XZ		; glm::tvec2<short,2>::operator++
PUBLIC	??F?$tvec2@F$01@glm@@QAEAAU01@XZ		; glm::tvec2<short,2>::operator--
PUBLIC	??E?$tvec2@F$01@glm@@QAE?AU01@H@Z		; glm::tvec2<short,2>::operator++
PUBLIC	??F?$tvec2@F$01@glm@@QAE?AU01@H@Z		; glm::tvec2<short,2>::operator--
PUBLIC	?length@?$tvec2@H$01@glm@@SAHXZ			; glm::tvec2<int,2>::length
PUBLIC	??A?$tvec2@H$01@glm@@QAEAAHH@Z			; glm::tvec2<int,2>::operator[]
PUBLIC	??A?$tvec2@H$01@glm@@QBEABHH@Z			; glm::tvec2<int,2>::operator[]
PUBLIC	??0?$tvec2@H$01@glm@@QAE@XZ			; glm::tvec2<int,2>::tvec2<int,2>
PUBLIC	??0?$tvec2@H$01@glm@@QAE@ABU01@@Z		; glm::tvec2<int,2>::tvec2<int,2>
PUBLIC	??0?$tvec2@H$01@glm@@QAE@W4ctor@1@@Z		; glm::tvec2<int,2>::tvec2<int,2>
PUBLIC	??0?$tvec2@H$01@glm@@QAE@H@Z			; glm::tvec2<int,2>::tvec2<int,2>
PUBLIC	??0?$tvec2@H$01@glm@@QAE@HH@Z			; glm::tvec2<int,2>::tvec2<int,2>
PUBLIC	??4?$tvec2@H$01@glm@@QAEAAU01@ABU01@@Z		; glm::tvec2<int,2>::operator=
PUBLIC	??E?$tvec2@H$01@glm@@QAEAAU01@XZ		; glm::tvec2<int,2>::operator++
PUBLIC	??F?$tvec2@H$01@glm@@QAEAAU01@XZ		; glm::tvec2<int,2>::operator--
PUBLIC	??E?$tvec2@H$01@glm@@QAE?AU01@H@Z		; glm::tvec2<int,2>::operator++
PUBLIC	??F?$tvec2@H$01@glm@@QAE?AU01@H@Z		; glm::tvec2<int,2>::operator--
PUBLIC	?length@?$tvec2@_J$01@glm@@SAHXZ		; glm::tvec2<__int64,2>::length
PUBLIC	??A?$tvec2@_J$01@glm@@QAEAA_JH@Z		; glm::tvec2<__int64,2>::operator[]
PUBLIC	??A?$tvec2@_J$01@glm@@QBEAB_JH@Z		; glm::tvec2<__int64,2>::operator[]
PUBLIC	??0?$tvec2@_J$01@glm@@QAE@XZ			; glm::tvec2<__int64,2>::tvec2<__int64,2>
PUBLIC	??0?$tvec2@_J$01@glm@@QAE@ABU01@@Z		; glm::tvec2<__int64,2>::tvec2<__int64,2>
PUBLIC	??0?$tvec2@_J$01@glm@@QAE@W4ctor@1@@Z		; glm::tvec2<__int64,2>::tvec2<__int64,2>
PUBLIC	??0?$tvec2@_J$01@glm@@QAE@_J@Z			; glm::tvec2<__int64,2>::tvec2<__int64,2>
PUBLIC	??0?$tvec2@_J$01@glm@@QAE@_J0@Z			; glm::tvec2<__int64,2>::tvec2<__int64,2>
PUBLIC	??4?$tvec2@_J$01@glm@@QAEAAU01@ABU01@@Z		; glm::tvec2<__int64,2>::operator=
PUBLIC	??E?$tvec2@_J$01@glm@@QAEAAU01@XZ		; glm::tvec2<__int64,2>::operator++
PUBLIC	??F?$tvec2@_J$01@glm@@QAEAAU01@XZ		; glm::tvec2<__int64,2>::operator--
PUBLIC	??E?$tvec2@_J$01@glm@@QAE?AU01@H@Z		; glm::tvec2<__int64,2>::operator++
PUBLIC	??F?$tvec2@_J$01@glm@@QAE?AU01@H@Z		; glm::tvec2<__int64,2>::operator--
PUBLIC	?length@?$tvec2@M$01@glm@@SAHXZ			; glm::tvec2<float,2>::length
PUBLIC	??A?$tvec2@M$01@glm@@QAEAAMH@Z			; glm::tvec2<float,2>::operator[]
PUBLIC	??A?$tvec2@M$01@glm@@QBEABMH@Z			; glm::tvec2<float,2>::operator[]
PUBLIC	??0?$tvec2@M$01@glm@@QAE@XZ			; glm::tvec2<float,2>::tvec2<float,2>
PUBLIC	??0?$tvec2@M$01@glm@@QAE@ABU01@@Z		; glm::tvec2<float,2>::tvec2<float,2>
PUBLIC	??0?$tvec2@M$01@glm@@QAE@W4ctor@1@@Z		; glm::tvec2<float,2>::tvec2<float,2>
PUBLIC	??0?$tvec2@M$01@glm@@QAE@M@Z			; glm::tvec2<float,2>::tvec2<float,2>
PUBLIC	??0?$tvec2@M$01@glm@@QAE@MM@Z			; glm::tvec2<float,2>::tvec2<float,2>
PUBLIC	??4?$tvec2@M$01@glm@@QAEAAU01@ABU01@@Z		; glm::tvec2<float,2>::operator=
PUBLIC	??E?$tvec2@M$01@glm@@QAEAAU01@XZ		; glm::tvec2<float,2>::operator++
PUBLIC	??F?$tvec2@M$01@glm@@QAEAAU01@XZ		; glm::tvec2<float,2>::operator--
PUBLIC	??E?$tvec2@M$01@glm@@QAE?AU01@H@Z		; glm::tvec2<float,2>::operator++
PUBLIC	??F?$tvec2@M$01@glm@@QAE?AU01@H@Z		; glm::tvec2<float,2>::operator--
PUBLIC	?length@?$tvec2@N$01@glm@@SAHXZ			; glm::tvec2<double,2>::length
PUBLIC	??A?$tvec2@N$01@glm@@QAEAANH@Z			; glm::tvec2<double,2>::operator[]
PUBLIC	??A?$tvec2@N$01@glm@@QBEABNH@Z			; glm::tvec2<double,2>::operator[]
PUBLIC	??0?$tvec2@N$01@glm@@QAE@XZ			; glm::tvec2<double,2>::tvec2<double,2>
PUBLIC	??0?$tvec2@N$01@glm@@QAE@ABU01@@Z		; glm::tvec2<double,2>::tvec2<double,2>
PUBLIC	??0?$tvec2@N$01@glm@@QAE@W4ctor@1@@Z		; glm::tvec2<double,2>::tvec2<double,2>
PUBLIC	??0?$tvec2@N$01@glm@@QAE@N@Z			; glm::tvec2<double,2>::tvec2<double,2>
PUBLIC	??0?$tvec2@N$01@glm@@QAE@NN@Z			; glm::tvec2<double,2>::tvec2<double,2>
PUBLIC	??4?$tvec2@N$01@glm@@QAEAAU01@ABU01@@Z		; glm::tvec2<double,2>::operator=
PUBLIC	??E?$tvec2@N$01@glm@@QAEAAU01@XZ		; glm::tvec2<double,2>::operator++
PUBLIC	??F?$tvec2@N$01@glm@@QAEAAU01@XZ		; glm::tvec2<double,2>::operator--
PUBLIC	??E?$tvec2@N$01@glm@@QAE?AU01@H@Z		; glm::tvec2<double,2>::operator++
PUBLIC	??F?$tvec2@N$01@glm@@QAE?AU01@H@Z		; glm::tvec2<double,2>::operator--
PUBLIC	?length@?$tvec2@E$00@glm@@SAHXZ			; glm::tvec2<unsigned char,1>::length
PUBLIC	??A?$tvec2@E$00@glm@@QAEAAEH@Z			; glm::tvec2<unsigned char,1>::operator[]
PUBLIC	??A?$tvec2@E$00@glm@@QBEABEH@Z			; glm::tvec2<unsigned char,1>::operator[]
PUBLIC	??0?$tvec2@E$00@glm@@QAE@XZ			; glm::tvec2<unsigned char,1>::tvec2<unsigned char,1>
PUBLIC	??0?$tvec2@E$00@glm@@QAE@ABU01@@Z		; glm::tvec2<unsigned char,1>::tvec2<unsigned char,1>
PUBLIC	??0?$tvec2@E$00@glm@@QAE@W4ctor@1@@Z		; glm::tvec2<unsigned char,1>::tvec2<unsigned char,1>
PUBLIC	??0?$tvec2@E$00@glm@@QAE@E@Z			; glm::tvec2<unsigned char,1>::tvec2<unsigned char,1>
PUBLIC	??0?$tvec2@E$00@glm@@QAE@EE@Z			; glm::tvec2<unsigned char,1>::tvec2<unsigned char,1>
PUBLIC	??4?$tvec2@E$00@glm@@QAEAAU01@ABU01@@Z		; glm::tvec2<unsigned char,1>::operator=
PUBLIC	??E?$tvec2@E$00@glm@@QAEAAU01@XZ		; glm::tvec2<unsigned char,1>::operator++
PUBLIC	??F?$tvec2@E$00@glm@@QAEAAU01@XZ		; glm::tvec2<unsigned char,1>::operator--
PUBLIC	??E?$tvec2@E$00@glm@@QAE?AU01@H@Z		; glm::tvec2<unsigned char,1>::operator++
PUBLIC	??F?$tvec2@E$00@glm@@QAE?AU01@H@Z		; glm::tvec2<unsigned char,1>::operator--
PUBLIC	?length@?$tvec2@G$00@glm@@SAHXZ			; glm::tvec2<unsigned short,1>::length
PUBLIC	??A?$tvec2@G$00@glm@@QAEAAGH@Z			; glm::tvec2<unsigned short,1>::operator[]
PUBLIC	??A?$tvec2@G$00@glm@@QBEABGH@Z			; glm::tvec2<unsigned short,1>::operator[]
PUBLIC	??0?$tvec2@G$00@glm@@QAE@XZ			; glm::tvec2<unsigned short,1>::tvec2<unsigned short,1>
PUBLIC	??0?$tvec2@G$00@glm@@QAE@ABU01@@Z		; glm::tvec2<unsigned short,1>::tvec2<unsigned short,1>
PUBLIC	??0?$tvec2@G$00@glm@@QAE@W4ctor@1@@Z		; glm::tvec2<unsigned short,1>::tvec2<unsigned short,1>
PUBLIC	??0?$tvec2@G$00@glm@@QAE@G@Z			; glm::tvec2<unsigned short,1>::tvec2<unsigned short,1>
PUBLIC	??0?$tvec2@G$00@glm@@QAE@GG@Z			; glm::tvec2<unsigned short,1>::tvec2<unsigned short,1>
PUBLIC	??4?$tvec2@G$00@glm@@QAEAAU01@ABU01@@Z		; glm::tvec2<unsigned short,1>::operator=
PUBLIC	??E?$tvec2@G$00@glm@@QAEAAU01@XZ		; glm::tvec2<unsigned short,1>::operator++
PUBLIC	??F?$tvec2@G$00@glm@@QAEAAU01@XZ		; glm::tvec2<unsigned short,1>::operator--
PUBLIC	??E?$tvec2@G$00@glm@@QAE?AU01@H@Z		; glm::tvec2<unsigned short,1>::operator++
PUBLIC	??F?$tvec2@G$00@glm@@QAE?AU01@H@Z		; glm::tvec2<unsigned short,1>::operator--
PUBLIC	?length@?$tvec2@I$00@glm@@SAHXZ			; glm::tvec2<unsigned int,1>::length
PUBLIC	??A?$tvec2@I$00@glm@@QAEAAIH@Z			; glm::tvec2<unsigned int,1>::operator[]
PUBLIC	??A?$tvec2@I$00@glm@@QBEABIH@Z			; glm::tvec2<unsigned int,1>::operator[]
PUBLIC	??0?$tvec2@I$00@glm@@QAE@XZ			; glm::tvec2<unsigned int,1>::tvec2<unsigned int,1>
PUBLIC	??0?$tvec2@I$00@glm@@QAE@ABU01@@Z		; glm::tvec2<unsigned int,1>::tvec2<unsigned int,1>
PUBLIC	??0?$tvec2@I$00@glm@@QAE@W4ctor@1@@Z		; glm::tvec2<unsigned int,1>::tvec2<unsigned int,1>
PUBLIC	??0?$tvec2@I$00@glm@@QAE@I@Z			; glm::tvec2<unsigned int,1>::tvec2<unsigned int,1>
PUBLIC	??0?$tvec2@I$00@glm@@QAE@II@Z			; glm::tvec2<unsigned int,1>::tvec2<unsigned int,1>
PUBLIC	??4?$tvec2@I$00@glm@@QAEAAU01@ABU01@@Z		; glm::tvec2<unsigned int,1>::operator=
PUBLIC	??E?$tvec2@I$00@glm@@QAEAAU01@XZ		; glm::tvec2<unsigned int,1>::operator++
PUBLIC	??F?$tvec2@I$00@glm@@QAEAAU01@XZ		; glm::tvec2<unsigned int,1>::operator--
PUBLIC	??E?$tvec2@I$00@glm@@QAE?AU01@H@Z		; glm::tvec2<unsigned int,1>::operator++
PUBLIC	??F?$tvec2@I$00@glm@@QAE?AU01@H@Z		; glm::tvec2<unsigned int,1>::operator--
PUBLIC	?length@?$tvec2@_K$00@glm@@SAHXZ		; glm::tvec2<unsigned __int64,1>::length
PUBLIC	??A?$tvec2@_K$00@glm@@QAEAA_KH@Z		; glm::tvec2<unsigned __int64,1>::operator[]
PUBLIC	??A?$tvec2@_K$00@glm@@QBEAB_KH@Z		; glm::tvec2<unsigned __int64,1>::operator[]
PUBLIC	??0?$tvec2@_K$00@glm@@QAE@XZ			; glm::tvec2<unsigned __int64,1>::tvec2<unsigned __int64,1>
PUBLIC	??0?$tvec2@_K$00@glm@@QAE@ABU01@@Z		; glm::tvec2<unsigned __int64,1>::tvec2<unsigned __int64,1>
PUBLIC	??0?$tvec2@_K$00@glm@@QAE@W4ctor@1@@Z		; glm::tvec2<unsigned __int64,1>::tvec2<unsigned __int64,1>
PUBLIC	??0?$tvec2@_K$00@glm@@QAE@_K@Z			; glm::tvec2<unsigned __int64,1>::tvec2<unsigned __int64,1>
PUBLIC	??0?$tvec2@_K$00@glm@@QAE@_K0@Z			; glm::tvec2<unsigned __int64,1>::tvec2<unsigned __int64,1>
PUBLIC	??4?$tvec2@_K$00@glm@@QAEAAU01@ABU01@@Z		; glm::tvec2<unsigned __int64,1>::operator=
PUBLIC	??E?$tvec2@_K$00@glm@@QAEAAU01@XZ		; glm::tvec2<unsigned __int64,1>::operator++
PUBLIC	??F?$tvec2@_K$00@glm@@QAEAAU01@XZ		; glm::tvec2<unsigned __int64,1>::operator--
PUBLIC	??E?$tvec2@_K$00@glm@@QAE?AU01@H@Z		; glm::tvec2<unsigned __int64,1>::operator++
PUBLIC	??F?$tvec2@_K$00@glm@@QAE?AU01@H@Z		; glm::tvec2<unsigned __int64,1>::operator--
PUBLIC	?length@?$tvec2@C$00@glm@@SAHXZ			; glm::tvec2<signed char,1>::length
PUBLIC	??A?$tvec2@C$00@glm@@QAEAACH@Z			; glm::tvec2<signed char,1>::operator[]
PUBLIC	??A?$tvec2@C$00@glm@@QBEABCH@Z			; glm::tvec2<signed char,1>::operator[]
PUBLIC	??0?$tvec2@C$00@glm@@QAE@XZ			; glm::tvec2<signed char,1>::tvec2<signed char,1>
PUBLIC	??0?$tvec2@C$00@glm@@QAE@ABU01@@Z		; glm::tvec2<signed char,1>::tvec2<signed char,1>
PUBLIC	??0?$tvec2@C$00@glm@@QAE@W4ctor@1@@Z		; glm::tvec2<signed char,1>::tvec2<signed char,1>
PUBLIC	??0?$tvec2@C$00@glm@@QAE@C@Z			; glm::tvec2<signed char,1>::tvec2<signed char,1>
PUBLIC	??0?$tvec2@C$00@glm@@QAE@CC@Z			; glm::tvec2<signed char,1>::tvec2<signed char,1>
PUBLIC	??4?$tvec2@C$00@glm@@QAEAAU01@ABU01@@Z		; glm::tvec2<signed char,1>::operator=
PUBLIC	??E?$tvec2@C$00@glm@@QAEAAU01@XZ		; glm::tvec2<signed char,1>::operator++
PUBLIC	??F?$tvec2@C$00@glm@@QAEAAU01@XZ		; glm::tvec2<signed char,1>::operator--
PUBLIC	??E?$tvec2@C$00@glm@@QAE?AU01@H@Z		; glm::tvec2<signed char,1>::operator++
PUBLIC	??F?$tvec2@C$00@glm@@QAE?AU01@H@Z		; glm::tvec2<signed char,1>::operator--
PUBLIC	?length@?$tvec2@F$00@glm@@SAHXZ			; glm::tvec2<short,1>::length
PUBLIC	??A?$tvec2@F$00@glm@@QAEAAFH@Z			; glm::tvec2<short,1>::operator[]
PUBLIC	??A?$tvec2@F$00@glm@@QBEABFH@Z			; glm::tvec2<short,1>::operator[]
PUBLIC	??0?$tvec2@F$00@glm@@QAE@XZ			; glm::tvec2<short,1>::tvec2<short,1>
PUBLIC	??0?$tvec2@F$00@glm@@QAE@ABU01@@Z		; glm::tvec2<short,1>::tvec2<short,1>
PUBLIC	??0?$tvec2@F$00@glm@@QAE@W4ctor@1@@Z		; glm::tvec2<short,1>::tvec2<short,1>
PUBLIC	??0?$tvec2@F$00@glm@@QAE@F@Z			; glm::tvec2<short,1>::tvec2<short,1>
PUBLIC	??0?$tvec2@F$00@glm@@QAE@FF@Z			; glm::tvec2<short,1>::tvec2<short,1>
PUBLIC	??4?$tvec2@F$00@glm@@QAEAAU01@ABU01@@Z		; glm::tvec2<short,1>::operator=
PUBLIC	??E?$tvec2@F$00@glm@@QAEAAU01@XZ		; glm::tvec2<short,1>::operator++
PUBLIC	??F?$tvec2@F$00@glm@@QAEAAU01@XZ		; glm::tvec2<short,1>::operator--
PUBLIC	??E?$tvec2@F$00@glm@@QAE?AU01@H@Z		; glm::tvec2<short,1>::operator++
PUBLIC	??F?$tvec2@F$00@glm@@QAE?AU01@H@Z		; glm::tvec2<short,1>::operator--
PUBLIC	?length@?$tvec2@H$00@glm@@SAHXZ			; glm::tvec2<int,1>::length
PUBLIC	??A?$tvec2@H$00@glm@@QAEAAHH@Z			; glm::tvec2<int,1>::operator[]
PUBLIC	??A?$tvec2@H$00@glm@@QBEABHH@Z			; glm::tvec2<int,1>::operator[]
PUBLIC	??0?$tvec2@H$00@glm@@QAE@XZ			; glm::tvec2<int,1>::tvec2<int,1>
PUBLIC	??0?$tvec2@H$00@glm@@QAE@ABU01@@Z		; glm::tvec2<int,1>::tvec2<int,1>
PUBLIC	??0?$tvec2@H$00@glm@@QAE@W4ctor@1@@Z		; glm::tvec2<int,1>::tvec2<int,1>
PUBLIC	??0?$tvec2@H$00@glm@@QAE@H@Z			; glm::tvec2<int,1>::tvec2<int,1>
PUBLIC	??0?$tvec2@H$00@glm@@QAE@HH@Z			; glm::tvec2<int,1>::tvec2<int,1>
PUBLIC	??4?$tvec2@H$00@glm@@QAEAAU01@ABU01@@Z		; glm::tvec2<int,1>::operator=
PUBLIC	??E?$tvec2@H$00@glm@@QAEAAU01@XZ		; glm::tvec2<int,1>::operator++
PUBLIC	??F?$tvec2@H$00@glm@@QAEAAU01@XZ		; glm::tvec2<int,1>::operator--
PUBLIC	??E?$tvec2@H$00@glm@@QAE?AU01@H@Z		; glm::tvec2<int,1>::operator++
PUBLIC	??F?$tvec2@H$00@glm@@QAE?AU01@H@Z		; glm::tvec2<int,1>::operator--
PUBLIC	?length@?$tvec2@_J$00@glm@@SAHXZ		; glm::tvec2<__int64,1>::length
PUBLIC	??A?$tvec2@_J$00@glm@@QAEAA_JH@Z		; glm::tvec2<__int64,1>::operator[]
PUBLIC	??A?$tvec2@_J$00@glm@@QBEAB_JH@Z		; glm::tvec2<__int64,1>::operator[]
PUBLIC	??0?$tvec2@_J$00@glm@@QAE@XZ			; glm::tvec2<__int64,1>::tvec2<__int64,1>
PUBLIC	??0?$tvec2@_J$00@glm@@QAE@ABU01@@Z		; glm::tvec2<__int64,1>::tvec2<__int64,1>
PUBLIC	??0?$tvec2@_J$00@glm@@QAE@W4ctor@1@@Z		; glm::tvec2<__int64,1>::tvec2<__int64,1>
PUBLIC	??0?$tvec2@_J$00@glm@@QAE@_J@Z			; glm::tvec2<__int64,1>::tvec2<__int64,1>
PUBLIC	??0?$tvec2@_J$00@glm@@QAE@_J0@Z			; glm::tvec2<__int64,1>::tvec2<__int64,1>
PUBLIC	??4?$tvec2@_J$00@glm@@QAEAAU01@ABU01@@Z		; glm::tvec2<__int64,1>::operator=
PUBLIC	??E?$tvec2@_J$00@glm@@QAEAAU01@XZ		; glm::tvec2<__int64,1>::operator++
PUBLIC	??F?$tvec2@_J$00@glm@@QAEAAU01@XZ		; glm::tvec2<__int64,1>::operator--
PUBLIC	??E?$tvec2@_J$00@glm@@QAE?AU01@H@Z		; glm::tvec2<__int64,1>::operator++
PUBLIC	??F?$tvec2@_J$00@glm@@QAE?AU01@H@Z		; glm::tvec2<__int64,1>::operator--
PUBLIC	?length@?$tvec2@M$00@glm@@SAHXZ			; glm::tvec2<float,1>::length
PUBLIC	??A?$tvec2@M$00@glm@@QAEAAMH@Z			; glm::tvec2<float,1>::operator[]
PUBLIC	??A?$tvec2@M$00@glm@@QBEABMH@Z			; glm::tvec2<float,1>::operator[]
PUBLIC	??0?$tvec2@M$00@glm@@QAE@XZ			; glm::tvec2<float,1>::tvec2<float,1>
PUBLIC	??0?$tvec2@M$00@glm@@QAE@ABU01@@Z		; glm::tvec2<float,1>::tvec2<float,1>
PUBLIC	??0?$tvec2@M$00@glm@@QAE@W4ctor@1@@Z		; glm::tvec2<float,1>::tvec2<float,1>
PUBLIC	??0?$tvec2@M$00@glm@@QAE@M@Z			; glm::tvec2<float,1>::tvec2<float,1>
PUBLIC	??0?$tvec2@M$00@glm@@QAE@MM@Z			; glm::tvec2<float,1>::tvec2<float,1>
PUBLIC	??4?$tvec2@M$00@glm@@QAEAAU01@ABU01@@Z		; glm::tvec2<float,1>::operator=
PUBLIC	??E?$tvec2@M$00@glm@@QAEAAU01@XZ		; glm::tvec2<float,1>::operator++
PUBLIC	??F?$tvec2@M$00@glm@@QAEAAU01@XZ		; glm::tvec2<float,1>::operator--
PUBLIC	??E?$tvec2@M$00@glm@@QAE?AU01@H@Z		; glm::tvec2<float,1>::operator++
PUBLIC	??F?$tvec2@M$00@glm@@QAE?AU01@H@Z		; glm::tvec2<float,1>::operator--
PUBLIC	?length@?$tvec2@N$00@glm@@SAHXZ			; glm::tvec2<double,1>::length
PUBLIC	??A?$tvec2@N$00@glm@@QAEAANH@Z			; glm::tvec2<double,1>::operator[]
PUBLIC	??A?$tvec2@N$00@glm@@QBEABNH@Z			; glm::tvec2<double,1>::operator[]
PUBLIC	??0?$tvec2@N$00@glm@@QAE@XZ			; glm::tvec2<double,1>::tvec2<double,1>
PUBLIC	??0?$tvec2@N$00@glm@@QAE@ABU01@@Z		; glm::tvec2<double,1>::tvec2<double,1>
PUBLIC	??0?$tvec2@N$00@glm@@QAE@W4ctor@1@@Z		; glm::tvec2<double,1>::tvec2<double,1>
PUBLIC	??0?$tvec2@N$00@glm@@QAE@N@Z			; glm::tvec2<double,1>::tvec2<double,1>
PUBLIC	??0?$tvec2@N$00@glm@@QAE@NN@Z			; glm::tvec2<double,1>::tvec2<double,1>
PUBLIC	??4?$tvec2@N$00@glm@@QAEAAU01@ABU01@@Z		; glm::tvec2<double,1>::operator=
PUBLIC	??E?$tvec2@N$00@glm@@QAEAAU01@XZ		; glm::tvec2<double,1>::operator++
PUBLIC	??F?$tvec2@N$00@glm@@QAEAAU01@XZ		; glm::tvec2<double,1>::operator--
PUBLIC	??E?$tvec2@N$00@glm@@QAE?AU01@H@Z		; glm::tvec2<double,1>::operator++
PUBLIC	??F?$tvec2@N$00@glm@@QAE?AU01@H@Z		; glm::tvec2<double,1>::operator--
PUBLIC	?length@?$tvec2@E$0A@@glm@@SAHXZ		; glm::tvec2<unsigned char,0>::length
PUBLIC	??A?$tvec2@E$0A@@glm@@QAEAAEH@Z			; glm::tvec2<unsigned char,0>::operator[]
PUBLIC	??A?$tvec2@E$0A@@glm@@QBEABEH@Z			; glm::tvec2<unsigned char,0>::operator[]
PUBLIC	??0?$tvec2@E$0A@@glm@@QAE@XZ			; glm::tvec2<unsigned char,0>::tvec2<unsigned char,0>
PUBLIC	??0?$tvec2@E$0A@@glm@@QAE@ABU01@@Z		; glm::tvec2<unsigned char,0>::tvec2<unsigned char,0>
PUBLIC	??0?$tvec2@E$0A@@glm@@QAE@W4ctor@1@@Z		; glm::tvec2<unsigned char,0>::tvec2<unsigned char,0>
PUBLIC	??0?$tvec2@E$0A@@glm@@QAE@E@Z			; glm::tvec2<unsigned char,0>::tvec2<unsigned char,0>
PUBLIC	??0?$tvec2@E$0A@@glm@@QAE@EE@Z			; glm::tvec2<unsigned char,0>::tvec2<unsigned char,0>
PUBLIC	??4?$tvec2@E$0A@@glm@@QAEAAU01@ABU01@@Z		; glm::tvec2<unsigned char,0>::operator=
PUBLIC	??E?$tvec2@E$0A@@glm@@QAEAAU01@XZ		; glm::tvec2<unsigned char,0>::operator++
PUBLIC	??F?$tvec2@E$0A@@glm@@QAEAAU01@XZ		; glm::tvec2<unsigned char,0>::operator--
PUBLIC	??E?$tvec2@E$0A@@glm@@QAE?AU01@H@Z		; glm::tvec2<unsigned char,0>::operator++
PUBLIC	??F?$tvec2@E$0A@@glm@@QAE?AU01@H@Z		; glm::tvec2<unsigned char,0>::operator--
PUBLIC	?length@?$tvec2@_K$0A@@glm@@SAHXZ		; glm::tvec2<unsigned __int64,0>::length
PUBLIC	??A?$tvec2@_K$0A@@glm@@QAEAA_KH@Z		; glm::tvec2<unsigned __int64,0>::operator[]
PUBLIC	??A?$tvec2@_K$0A@@glm@@QBEAB_KH@Z		; glm::tvec2<unsigned __int64,0>::operator[]
PUBLIC	??0?$tvec2@_K$0A@@glm@@QAE@XZ			; glm::tvec2<unsigned __int64,0>::tvec2<unsigned __int64,0>
PUBLIC	??0?$tvec2@_K$0A@@glm@@QAE@ABU01@@Z		; glm::tvec2<unsigned __int64,0>::tvec2<unsigned __int64,0>
PUBLIC	??0?$tvec2@_K$0A@@glm@@QAE@W4ctor@1@@Z		; glm::tvec2<unsigned __int64,0>::tvec2<unsigned __int64,0>
PUBLIC	??0?$tvec2@_K$0A@@glm@@QAE@_K@Z			; glm::tvec2<unsigned __int64,0>::tvec2<unsigned __int64,0>
PUBLIC	??0?$tvec2@_K$0A@@glm@@QAE@_K0@Z		; glm::tvec2<unsigned __int64,0>::tvec2<unsigned __int64,0>
PUBLIC	??4?$tvec2@_K$0A@@glm@@QAEAAU01@ABU01@@Z	; glm::tvec2<unsigned __int64,0>::operator=
PUBLIC	??E?$tvec2@_K$0A@@glm@@QAEAAU01@XZ		; glm::tvec2<unsigned __int64,0>::operator++
PUBLIC	??F?$tvec2@_K$0A@@glm@@QAEAAU01@XZ		; glm::tvec2<unsigned __int64,0>::operator--
PUBLIC	??E?$tvec2@_K$0A@@glm@@QAE?AU01@H@Z		; glm::tvec2<unsigned __int64,0>::operator++
PUBLIC	??F?$tvec2@_K$0A@@glm@@QAE?AU01@H@Z		; glm::tvec2<unsigned __int64,0>::operator--
PUBLIC	?length@?$tvec2@C$0A@@glm@@SAHXZ		; glm::tvec2<signed char,0>::length
PUBLIC	??A?$tvec2@C$0A@@glm@@QAEAACH@Z			; glm::tvec2<signed char,0>::operator[]
PUBLIC	??A?$tvec2@C$0A@@glm@@QBEABCH@Z			; glm::tvec2<signed char,0>::operator[]
PUBLIC	??0?$tvec2@C$0A@@glm@@QAE@XZ			; glm::tvec2<signed char,0>::tvec2<signed char,0>
PUBLIC	??0?$tvec2@C$0A@@glm@@QAE@ABU01@@Z		; glm::tvec2<signed char,0>::tvec2<signed char,0>
PUBLIC	??0?$tvec2@C$0A@@glm@@QAE@W4ctor@1@@Z		; glm::tvec2<signed char,0>::tvec2<signed char,0>
PUBLIC	??0?$tvec2@C$0A@@glm@@QAE@C@Z			; glm::tvec2<signed char,0>::tvec2<signed char,0>
PUBLIC	??0?$tvec2@C$0A@@glm@@QAE@CC@Z			; glm::tvec2<signed char,0>::tvec2<signed char,0>
PUBLIC	??4?$tvec2@C$0A@@glm@@QAEAAU01@ABU01@@Z		; glm::tvec2<signed char,0>::operator=
PUBLIC	??E?$tvec2@C$0A@@glm@@QAEAAU01@XZ		; glm::tvec2<signed char,0>::operator++
PUBLIC	??F?$tvec2@C$0A@@glm@@QAEAAU01@XZ		; glm::tvec2<signed char,0>::operator--
PUBLIC	??E?$tvec2@C$0A@@glm@@QAE?AU01@H@Z		; glm::tvec2<signed char,0>::operator++
PUBLIC	??F?$tvec2@C$0A@@glm@@QAE?AU01@H@Z		; glm::tvec2<signed char,0>::operator--
PUBLIC	?length@?$tvec2@H$0A@@glm@@SAHXZ		; glm::tvec2<int,0>::length
PUBLIC	??A?$tvec2@H$0A@@glm@@QAEAAHH@Z			; glm::tvec2<int,0>::operator[]
PUBLIC	??A?$tvec2@H$0A@@glm@@QBEABHH@Z			; glm::tvec2<int,0>::operator[]
PUBLIC	??0?$tvec2@H$0A@@glm@@QAE@XZ			; glm::tvec2<int,0>::tvec2<int,0>
PUBLIC	??0?$tvec2@H$0A@@glm@@QAE@ABU01@@Z		; glm::tvec2<int,0>::tvec2<int,0>
PUBLIC	??0?$tvec2@H$0A@@glm@@QAE@W4ctor@1@@Z		; glm::tvec2<int,0>::tvec2<int,0>
PUBLIC	??0?$tvec2@H$0A@@glm@@QAE@H@Z			; glm::tvec2<int,0>::tvec2<int,0>
PUBLIC	??0?$tvec2@H$0A@@glm@@QAE@HH@Z			; glm::tvec2<int,0>::tvec2<int,0>
PUBLIC	??4?$tvec2@H$0A@@glm@@QAEAAU01@ABU01@@Z		; glm::tvec2<int,0>::operator=
PUBLIC	??E?$tvec2@H$0A@@glm@@QAEAAU01@XZ		; glm::tvec2<int,0>::operator++
PUBLIC	??F?$tvec2@H$0A@@glm@@QAEAAU01@XZ		; glm::tvec2<int,0>::operator--
PUBLIC	??E?$tvec2@H$0A@@glm@@QAE?AU01@H@Z		; glm::tvec2<int,0>::operator++
PUBLIC	??F?$tvec2@H$0A@@glm@@QAE?AU01@H@Z		; glm::tvec2<int,0>::operator--
PUBLIC	?length@?$tvec2@_J$0A@@glm@@SAHXZ		; glm::tvec2<__int64,0>::length
PUBLIC	??A?$tvec2@_J$0A@@glm@@QAEAA_JH@Z		; glm::tvec2<__int64,0>::operator[]
PUBLIC	??A?$tvec2@_J$0A@@glm@@QBEAB_JH@Z		; glm::tvec2<__int64,0>::operator[]
PUBLIC	??0?$tvec2@_J$0A@@glm@@QAE@XZ			; glm::tvec2<__int64,0>::tvec2<__int64,0>
PUBLIC	??0?$tvec2@_J$0A@@glm@@QAE@ABU01@@Z		; glm::tvec2<__int64,0>::tvec2<__int64,0>
PUBLIC	??0?$tvec2@_J$0A@@glm@@QAE@W4ctor@1@@Z		; glm::tvec2<__int64,0>::tvec2<__int64,0>
PUBLIC	??0?$tvec2@_J$0A@@glm@@QAE@_J@Z			; glm::tvec2<__int64,0>::tvec2<__int64,0>
PUBLIC	??0?$tvec2@_J$0A@@glm@@QAE@_J0@Z		; glm::tvec2<__int64,0>::tvec2<__int64,0>
PUBLIC	??4?$tvec2@_J$0A@@glm@@QAEAAU01@ABU01@@Z	; glm::tvec2<__int64,0>::operator=
PUBLIC	??E?$tvec2@_J$0A@@glm@@QAEAAU01@XZ		; glm::tvec2<__int64,0>::operator++
PUBLIC	??F?$tvec2@_J$0A@@glm@@QAEAAU01@XZ		; glm::tvec2<__int64,0>::operator--
PUBLIC	??E?$tvec2@_J$0A@@glm@@QAE?AU01@H@Z		; glm::tvec2<__int64,0>::operator++
PUBLIC	??F?$tvec2@_J$0A@@glm@@QAE?AU01@H@Z		; glm::tvec2<__int64,0>::operator--
PUBLIC	?length@?$tvec2@N$0A@@glm@@SAHXZ		; glm::tvec2<double,0>::length
PUBLIC	??A?$tvec2@N$0A@@glm@@QAEAANH@Z			; glm::tvec2<double,0>::operator[]
PUBLIC	??A?$tvec2@N$0A@@glm@@QBEABNH@Z			; glm::tvec2<double,0>::operator[]
PUBLIC	??0?$tvec2@N$0A@@glm@@QAE@XZ			; glm::tvec2<double,0>::tvec2<double,0>
PUBLIC	??0?$tvec2@N$0A@@glm@@QAE@ABU01@@Z		; glm::tvec2<double,0>::tvec2<double,0>
PUBLIC	??0?$tvec2@N$0A@@glm@@QAE@W4ctor@1@@Z		; glm::tvec2<double,0>::tvec2<double,0>
PUBLIC	??0?$tvec2@N$0A@@glm@@QAE@N@Z			; glm::tvec2<double,0>::tvec2<double,0>
PUBLIC	??0?$tvec2@N$0A@@glm@@QAE@NN@Z			; glm::tvec2<double,0>::tvec2<double,0>
PUBLIC	??4?$tvec2@N$0A@@glm@@QAEAAU01@ABU01@@Z		; glm::tvec2<double,0>::operator=
PUBLIC	??E?$tvec2@N$0A@@glm@@QAEAAU01@XZ		; glm::tvec2<double,0>::operator++
PUBLIC	??F?$tvec2@N$0A@@glm@@QAEAAU01@XZ		; glm::tvec2<double,0>::operator--
PUBLIC	??E?$tvec2@N$0A@@glm@@QAE?AU01@H@Z		; glm::tvec2<double,0>::operator++
PUBLIC	??F?$tvec2@N$0A@@glm@@QAE?AU01@H@Z		; glm::tvec2<double,0>::operator--
PUBLIC	?length@?$tvec3@E$01@glm@@SAHXZ			; glm::tvec3<unsigned char,2>::length
PUBLIC	??A?$tvec3@E$01@glm@@QAEAAEH@Z			; glm::tvec3<unsigned char,2>::operator[]
PUBLIC	??A?$tvec3@E$01@glm@@QBEABEH@Z			; glm::tvec3<unsigned char,2>::operator[]
PUBLIC	??0?$tvec3@E$01@glm@@QAE@XZ			; glm::tvec3<unsigned char,2>::tvec3<unsigned char,2>
PUBLIC	??0?$tvec3@E$01@glm@@QAE@ABU01@@Z		; glm::tvec3<unsigned char,2>::tvec3<unsigned char,2>
PUBLIC	??0?$tvec3@E$01@glm@@QAE@W4ctor@1@@Z		; glm::tvec3<unsigned char,2>::tvec3<unsigned char,2>
PUBLIC	??0?$tvec3@E$01@glm@@QAE@E@Z			; glm::tvec3<unsigned char,2>::tvec3<unsigned char,2>
PUBLIC	??0?$tvec3@E$01@glm@@QAE@EEE@Z			; glm::tvec3<unsigned char,2>::tvec3<unsigned char,2>
PUBLIC	??4?$tvec3@E$01@glm@@QAEAAU01@ABU01@@Z		; glm::tvec3<unsigned char,2>::operator=
PUBLIC	??E?$tvec3@E$01@glm@@QAEAAU01@XZ		; glm::tvec3<unsigned char,2>::operator++
PUBLIC	??F?$tvec3@E$01@glm@@QAEAAU01@XZ		; glm::tvec3<unsigned char,2>::operator--
PUBLIC	??E?$tvec3@E$01@glm@@QAE?AU01@H@Z		; glm::tvec3<unsigned char,2>::operator++
PUBLIC	??F?$tvec3@E$01@glm@@QAE?AU01@H@Z		; glm::tvec3<unsigned char,2>::operator--
PUBLIC	?length@?$tvec3@G$01@glm@@SAHXZ			; glm::tvec3<unsigned short,2>::length
PUBLIC	??A?$tvec3@G$01@glm@@QAEAAGH@Z			; glm::tvec3<unsigned short,2>::operator[]
PUBLIC	??A?$tvec3@G$01@glm@@QBEABGH@Z			; glm::tvec3<unsigned short,2>::operator[]
PUBLIC	??0?$tvec3@G$01@glm@@QAE@XZ			; glm::tvec3<unsigned short,2>::tvec3<unsigned short,2>
PUBLIC	??0?$tvec3@G$01@glm@@QAE@ABU01@@Z		; glm::tvec3<unsigned short,2>::tvec3<unsigned short,2>
PUBLIC	??0?$tvec3@G$01@glm@@QAE@W4ctor@1@@Z		; glm::tvec3<unsigned short,2>::tvec3<unsigned short,2>
PUBLIC	??0?$tvec3@G$01@glm@@QAE@G@Z			; glm::tvec3<unsigned short,2>::tvec3<unsigned short,2>
PUBLIC	??0?$tvec3@G$01@glm@@QAE@GGG@Z			; glm::tvec3<unsigned short,2>::tvec3<unsigned short,2>
PUBLIC	??4?$tvec3@G$01@glm@@QAEAAU01@ABU01@@Z		; glm::tvec3<unsigned short,2>::operator=
PUBLIC	??E?$tvec3@G$01@glm@@QAEAAU01@XZ		; glm::tvec3<unsigned short,2>::operator++
PUBLIC	??F?$tvec3@G$01@glm@@QAEAAU01@XZ		; glm::tvec3<unsigned short,2>::operator--
PUBLIC	??E?$tvec3@G$01@glm@@QAE?AU01@H@Z		; glm::tvec3<unsigned short,2>::operator++
PUBLIC	??F?$tvec3@G$01@glm@@QAE?AU01@H@Z		; glm::tvec3<unsigned short,2>::operator--
PUBLIC	?length@?$tvec3@I$01@glm@@SAHXZ			; glm::tvec3<unsigned int,2>::length
PUBLIC	??A?$tvec3@I$01@glm@@QAEAAIH@Z			; glm::tvec3<unsigned int,2>::operator[]
PUBLIC	??A?$tvec3@I$01@glm@@QBEABIH@Z			; glm::tvec3<unsigned int,2>::operator[]
PUBLIC	??0?$tvec3@I$01@glm@@QAE@XZ			; glm::tvec3<unsigned int,2>::tvec3<unsigned int,2>
PUBLIC	??0?$tvec3@I$01@glm@@QAE@ABU01@@Z		; glm::tvec3<unsigned int,2>::tvec3<unsigned int,2>
PUBLIC	??0?$tvec3@I$01@glm@@QAE@W4ctor@1@@Z		; glm::tvec3<unsigned int,2>::tvec3<unsigned int,2>
PUBLIC	??0?$tvec3@I$01@glm@@QAE@I@Z			; glm::tvec3<unsigned int,2>::tvec3<unsigned int,2>
PUBLIC	??0?$tvec3@I$01@glm@@QAE@III@Z			; glm::tvec3<unsigned int,2>::tvec3<unsigned int,2>
PUBLIC	??4?$tvec3@I$01@glm@@QAEAAU01@ABU01@@Z		; glm::tvec3<unsigned int,2>::operator=
PUBLIC	??E?$tvec3@I$01@glm@@QAEAAU01@XZ		; glm::tvec3<unsigned int,2>::operator++
PUBLIC	??F?$tvec3@I$01@glm@@QAEAAU01@XZ		; glm::tvec3<unsigned int,2>::operator--
PUBLIC	??E?$tvec3@I$01@glm@@QAE?AU01@H@Z		; glm::tvec3<unsigned int,2>::operator++
PUBLIC	??F?$tvec3@I$01@glm@@QAE?AU01@H@Z		; glm::tvec3<unsigned int,2>::operator--
PUBLIC	?length@?$tvec3@_K$01@glm@@SAHXZ		; glm::tvec3<unsigned __int64,2>::length
PUBLIC	??A?$tvec3@_K$01@glm@@QAEAA_KH@Z		; glm::tvec3<unsigned __int64,2>::operator[]
PUBLIC	??A?$tvec3@_K$01@glm@@QBEAB_KH@Z		; glm::tvec3<unsigned __int64,2>::operator[]
PUBLIC	??0?$tvec3@_K$01@glm@@QAE@XZ			; glm::tvec3<unsigned __int64,2>::tvec3<unsigned __int64,2>
PUBLIC	??0?$tvec3@_K$01@glm@@QAE@ABU01@@Z		; glm::tvec3<unsigned __int64,2>::tvec3<unsigned __int64,2>
PUBLIC	??0?$tvec3@_K$01@glm@@QAE@W4ctor@1@@Z		; glm::tvec3<unsigned __int64,2>::tvec3<unsigned __int64,2>
PUBLIC	??0?$tvec3@_K$01@glm@@QAE@_K@Z			; glm::tvec3<unsigned __int64,2>::tvec3<unsigned __int64,2>
PUBLIC	??0?$tvec3@_K$01@glm@@QAE@_K00@Z		; glm::tvec3<unsigned __int64,2>::tvec3<unsigned __int64,2>
PUBLIC	??4?$tvec3@_K$01@glm@@QAEAAU01@ABU01@@Z		; glm::tvec3<unsigned __int64,2>::operator=
PUBLIC	??E?$tvec3@_K$01@glm@@QAEAAU01@XZ		; glm::tvec3<unsigned __int64,2>::operator++
PUBLIC	??F?$tvec3@_K$01@glm@@QAEAAU01@XZ		; glm::tvec3<unsigned __int64,2>::operator--
PUBLIC	??E?$tvec3@_K$01@glm@@QAE?AU01@H@Z		; glm::tvec3<unsigned __int64,2>::operator++
PUBLIC	??F?$tvec3@_K$01@glm@@QAE?AU01@H@Z		; glm::tvec3<unsigned __int64,2>::operator--
PUBLIC	?length@?$tvec3@C$01@glm@@SAHXZ			; glm::tvec3<signed char,2>::length
PUBLIC	??A?$tvec3@C$01@glm@@QAEAACH@Z			; glm::tvec3<signed char,2>::operator[]
PUBLIC	??A?$tvec3@C$01@glm@@QBEABCH@Z			; glm::tvec3<signed char,2>::operator[]
PUBLIC	??0?$tvec3@C$01@glm@@QAE@XZ			; glm::tvec3<signed char,2>::tvec3<signed char,2>
PUBLIC	??0?$tvec3@C$01@glm@@QAE@ABU01@@Z		; glm::tvec3<signed char,2>::tvec3<signed char,2>
PUBLIC	??0?$tvec3@C$01@glm@@QAE@W4ctor@1@@Z		; glm::tvec3<signed char,2>::tvec3<signed char,2>
PUBLIC	??0?$tvec3@C$01@glm@@QAE@C@Z			; glm::tvec3<signed char,2>::tvec3<signed char,2>
PUBLIC	??0?$tvec3@C$01@glm@@QAE@CCC@Z			; glm::tvec3<signed char,2>::tvec3<signed char,2>
PUBLIC	??4?$tvec3@C$01@glm@@QAEAAU01@ABU01@@Z		; glm::tvec3<signed char,2>::operator=
PUBLIC	??E?$tvec3@C$01@glm@@QAEAAU01@XZ		; glm::tvec3<signed char,2>::operator++
PUBLIC	??F?$tvec3@C$01@glm@@QAEAAU01@XZ		; glm::tvec3<signed char,2>::operator--
PUBLIC	??E?$tvec3@C$01@glm@@QAE?AU01@H@Z		; glm::tvec3<signed char,2>::operator++
PUBLIC	??F?$tvec3@C$01@glm@@QAE?AU01@H@Z		; glm::tvec3<signed char,2>::operator--
PUBLIC	?length@?$tvec3@F$01@glm@@SAHXZ			; glm::tvec3<short,2>::length
PUBLIC	??A?$tvec3@F$01@glm@@QAEAAFH@Z			; glm::tvec3<short,2>::operator[]
PUBLIC	??A?$tvec3@F$01@glm@@QBEABFH@Z			; glm::tvec3<short,2>::operator[]
PUBLIC	??0?$tvec3@F$01@glm@@QAE@XZ			; glm::tvec3<short,2>::tvec3<short,2>
PUBLIC	??0?$tvec3@F$01@glm@@QAE@ABU01@@Z		; glm::tvec3<short,2>::tvec3<short,2>
PUBLIC	??0?$tvec3@F$01@glm@@QAE@W4ctor@1@@Z		; glm::tvec3<short,2>::tvec3<short,2>
PUBLIC	??0?$tvec3@F$01@glm@@QAE@F@Z			; glm::tvec3<short,2>::tvec3<short,2>
PUBLIC	??0?$tvec3@F$01@glm@@QAE@FFF@Z			; glm::tvec3<short,2>::tvec3<short,2>
PUBLIC	??4?$tvec3@F$01@glm@@QAEAAU01@ABU01@@Z		; glm::tvec3<short,2>::operator=
PUBLIC	??E?$tvec3@F$01@glm@@QAEAAU01@XZ		; glm::tvec3<short,2>::operator++
PUBLIC	??F?$tvec3@F$01@glm@@QAEAAU01@XZ		; glm::tvec3<short,2>::operator--
PUBLIC	??E?$tvec3@F$01@glm@@QAE?AU01@H@Z		; glm::tvec3<short,2>::operator++
PUBLIC	??F?$tvec3@F$01@glm@@QAE?AU01@H@Z		; glm::tvec3<short,2>::operator--
PUBLIC	?length@?$tvec3@H$01@glm@@SAHXZ			; glm::tvec3<int,2>::length
PUBLIC	??A?$tvec3@H$01@glm@@QAEAAHH@Z			; glm::tvec3<int,2>::operator[]
PUBLIC	??A?$tvec3@H$01@glm@@QBEABHH@Z			; glm::tvec3<int,2>::operator[]
PUBLIC	??0?$tvec3@H$01@glm@@QAE@XZ			; glm::tvec3<int,2>::tvec3<int,2>
PUBLIC	??0?$tvec3@H$01@glm@@QAE@ABU01@@Z		; glm::tvec3<int,2>::tvec3<int,2>
PUBLIC	??0?$tvec3@H$01@glm@@QAE@W4ctor@1@@Z		; glm::tvec3<int,2>::tvec3<int,2>
PUBLIC	??0?$tvec3@H$01@glm@@QAE@H@Z			; glm::tvec3<int,2>::tvec3<int,2>
PUBLIC	??0?$tvec3@H$01@glm@@QAE@HHH@Z			; glm::tvec3<int,2>::tvec3<int,2>
PUBLIC	??4?$tvec3@H$01@glm@@QAEAAU01@ABU01@@Z		; glm::tvec3<int,2>::operator=
PUBLIC	??E?$tvec3@H$01@glm@@QAEAAU01@XZ		; glm::tvec3<int,2>::operator++
PUBLIC	??F?$tvec3@H$01@glm@@QAEAAU01@XZ		; glm::tvec3<int,2>::operator--
PUBLIC	??E?$tvec3@H$01@glm@@QAE?AU01@H@Z		; glm::tvec3<int,2>::operator++
PUBLIC	??F?$tvec3@H$01@glm@@QAE?AU01@H@Z		; glm::tvec3<int,2>::operator--
PUBLIC	?length@?$tvec3@_J$01@glm@@SAHXZ		; glm::tvec3<__int64,2>::length
PUBLIC	??A?$tvec3@_J$01@glm@@QAEAA_JH@Z		; glm::tvec3<__int64,2>::operator[]
PUBLIC	??A?$tvec3@_J$01@glm@@QBEAB_JH@Z		; glm::tvec3<__int64,2>::operator[]
PUBLIC	??0?$tvec3@_J$01@glm@@QAE@XZ			; glm::tvec3<__int64,2>::tvec3<__int64,2>
PUBLIC	??0?$tvec3@_J$01@glm@@QAE@ABU01@@Z		; glm::tvec3<__int64,2>::tvec3<__int64,2>
PUBLIC	??0?$tvec3@_J$01@glm@@QAE@W4ctor@1@@Z		; glm::tvec3<__int64,2>::tvec3<__int64,2>
PUBLIC	??0?$tvec3@_J$01@glm@@QAE@_J@Z			; glm::tvec3<__int64,2>::tvec3<__int64,2>
PUBLIC	??0?$tvec3@_J$01@glm@@QAE@_J00@Z		; glm::tvec3<__int64,2>::tvec3<__int64,2>
PUBLIC	??4?$tvec3@_J$01@glm@@QAEAAU01@ABU01@@Z		; glm::tvec3<__int64,2>::operator=
PUBLIC	??E?$tvec3@_J$01@glm@@QAEAAU01@XZ		; glm::tvec3<__int64,2>::operator++
PUBLIC	??F?$tvec3@_J$01@glm@@QAEAAU01@XZ		; glm::tvec3<__int64,2>::operator--
PUBLIC	??E?$tvec3@_J$01@glm@@QAE?AU01@H@Z		; glm::tvec3<__int64,2>::operator++
PUBLIC	??F?$tvec3@_J$01@glm@@QAE?AU01@H@Z		; glm::tvec3<__int64,2>::operator--
PUBLIC	?length@?$tvec3@M$01@glm@@SAHXZ			; glm::tvec3<float,2>::length
PUBLIC	??A?$tvec3@M$01@glm@@QAEAAMH@Z			; glm::tvec3<float,2>::operator[]
PUBLIC	??A?$tvec3@M$01@glm@@QBEABMH@Z			; glm::tvec3<float,2>::operator[]
PUBLIC	??0?$tvec3@M$01@glm@@QAE@XZ			; glm::tvec3<float,2>::tvec3<float,2>
PUBLIC	??0?$tvec3@M$01@glm@@QAE@ABU01@@Z		; glm::tvec3<float,2>::tvec3<float,2>
PUBLIC	??0?$tvec3@M$01@glm@@QAE@W4ctor@1@@Z		; glm::tvec3<float,2>::tvec3<float,2>
PUBLIC	??0?$tvec3@M$01@glm@@QAE@M@Z			; glm::tvec3<float,2>::tvec3<float,2>
PUBLIC	??0?$tvec3@M$01@glm@@QAE@MMM@Z			; glm::tvec3<float,2>::tvec3<float,2>
PUBLIC	??4?$tvec3@M$01@glm@@QAEAAU01@ABU01@@Z		; glm::tvec3<float,2>::operator=
PUBLIC	??E?$tvec3@M$01@glm@@QAEAAU01@XZ		; glm::tvec3<float,2>::operator++
PUBLIC	??F?$tvec3@M$01@glm@@QAEAAU01@XZ		; glm::tvec3<float,2>::operator--
PUBLIC	??E?$tvec3@M$01@glm@@QAE?AU01@H@Z		; glm::tvec3<float,2>::operator++
PUBLIC	??F?$tvec3@M$01@glm@@QAE?AU01@H@Z		; glm::tvec3<float,2>::operator--
PUBLIC	?length@?$tvec3@N$01@glm@@SAHXZ			; glm::tvec3<double,2>::length
PUBLIC	??A?$tvec3@N$01@glm@@QAEAANH@Z			; glm::tvec3<double,2>::operator[]
PUBLIC	??A?$tvec3@N$01@glm@@QBEABNH@Z			; glm::tvec3<double,2>::operator[]
PUBLIC	??0?$tvec3@N$01@glm@@QAE@XZ			; glm::tvec3<double,2>::tvec3<double,2>
PUBLIC	??0?$tvec3@N$01@glm@@QAE@ABU01@@Z		; glm::tvec3<double,2>::tvec3<double,2>
PUBLIC	??0?$tvec3@N$01@glm@@QAE@W4ctor@1@@Z		; glm::tvec3<double,2>::tvec3<double,2>
PUBLIC	??0?$tvec3@N$01@glm@@QAE@N@Z			; glm::tvec3<double,2>::tvec3<double,2>
PUBLIC	??0?$tvec3@N$01@glm@@QAE@NNN@Z			; glm::tvec3<double,2>::tvec3<double,2>
PUBLIC	??4?$tvec3@N$01@glm@@QAEAAU01@ABU01@@Z		; glm::tvec3<double,2>::operator=
PUBLIC	??E?$tvec3@N$01@glm@@QAEAAU01@XZ		; glm::tvec3<double,2>::operator++
PUBLIC	??F?$tvec3@N$01@glm@@QAEAAU01@XZ		; glm::tvec3<double,2>::operator--
PUBLIC	??E?$tvec3@N$01@glm@@QAE?AU01@H@Z		; glm::tvec3<double,2>::operator++
PUBLIC	??F?$tvec3@N$01@glm@@QAE?AU01@H@Z		; glm::tvec3<double,2>::operator--
PUBLIC	?length@?$tvec3@E$00@glm@@SAHXZ			; glm::tvec3<unsigned char,1>::length
PUBLIC	??A?$tvec3@E$00@glm@@QAEAAEH@Z			; glm::tvec3<unsigned char,1>::operator[]
PUBLIC	??A?$tvec3@E$00@glm@@QBEABEH@Z			; glm::tvec3<unsigned char,1>::operator[]
PUBLIC	??0?$tvec3@E$00@glm@@QAE@XZ			; glm::tvec3<unsigned char,1>::tvec3<unsigned char,1>
PUBLIC	??0?$tvec3@E$00@glm@@QAE@ABU01@@Z		; glm::tvec3<unsigned char,1>::tvec3<unsigned char,1>
PUBLIC	??0?$tvec3@E$00@glm@@QAE@W4ctor@1@@Z		; glm::tvec3<unsigned char,1>::tvec3<unsigned char,1>
PUBLIC	??0?$tvec3@E$00@glm@@QAE@E@Z			; glm::tvec3<unsigned char,1>::tvec3<unsigned char,1>
PUBLIC	??0?$tvec3@E$00@glm@@QAE@EEE@Z			; glm::tvec3<unsigned char,1>::tvec3<unsigned char,1>
PUBLIC	??4?$tvec3@E$00@glm@@QAEAAU01@ABU01@@Z		; glm::tvec3<unsigned char,1>::operator=
PUBLIC	??E?$tvec3@E$00@glm@@QAEAAU01@XZ		; glm::tvec3<unsigned char,1>::operator++
PUBLIC	??F?$tvec3@E$00@glm@@QAEAAU01@XZ		; glm::tvec3<unsigned char,1>::operator--
PUBLIC	??E?$tvec3@E$00@glm@@QAE?AU01@H@Z		; glm::tvec3<unsigned char,1>::operator++
PUBLIC	??F?$tvec3@E$00@glm@@QAE?AU01@H@Z		; glm::tvec3<unsigned char,1>::operator--
PUBLIC	?length@?$tvec3@G$00@glm@@SAHXZ			; glm::tvec3<unsigned short,1>::length
PUBLIC	??A?$tvec3@G$00@glm@@QAEAAGH@Z			; glm::tvec3<unsigned short,1>::operator[]
PUBLIC	??A?$tvec3@G$00@glm@@QBEABGH@Z			; glm::tvec3<unsigned short,1>::operator[]
PUBLIC	??0?$tvec3@G$00@glm@@QAE@XZ			; glm::tvec3<unsigned short,1>::tvec3<unsigned short,1>
PUBLIC	??0?$tvec3@G$00@glm@@QAE@ABU01@@Z		; glm::tvec3<unsigned short,1>::tvec3<unsigned short,1>
PUBLIC	??0?$tvec3@G$00@glm@@QAE@W4ctor@1@@Z		; glm::tvec3<unsigned short,1>::tvec3<unsigned short,1>
PUBLIC	??0?$tvec3@G$00@glm@@QAE@G@Z			; glm::tvec3<unsigned short,1>::tvec3<unsigned short,1>
PUBLIC	??0?$tvec3@G$00@glm@@QAE@GGG@Z			; glm::tvec3<unsigned short,1>::tvec3<unsigned short,1>
PUBLIC	??4?$tvec3@G$00@glm@@QAEAAU01@ABU01@@Z		; glm::tvec3<unsigned short,1>::operator=
PUBLIC	??E?$tvec3@G$00@glm@@QAEAAU01@XZ		; glm::tvec3<unsigned short,1>::operator++
PUBLIC	??F?$tvec3@G$00@glm@@QAEAAU01@XZ		; glm::tvec3<unsigned short,1>::operator--
PUBLIC	??E?$tvec3@G$00@glm@@QAE?AU01@H@Z		; glm::tvec3<unsigned short,1>::operator++
PUBLIC	??F?$tvec3@G$00@glm@@QAE?AU01@H@Z		; glm::tvec3<unsigned short,1>::operator--
PUBLIC	?length@?$tvec3@I$00@glm@@SAHXZ			; glm::tvec3<unsigned int,1>::length
PUBLIC	??A?$tvec3@I$00@glm@@QAEAAIH@Z			; glm::tvec3<unsigned int,1>::operator[]
PUBLIC	??A?$tvec3@I$00@glm@@QBEABIH@Z			; glm::tvec3<unsigned int,1>::operator[]
PUBLIC	??0?$tvec3@I$00@glm@@QAE@XZ			; glm::tvec3<unsigned int,1>::tvec3<unsigned int,1>
PUBLIC	??0?$tvec3@I$00@glm@@QAE@ABU01@@Z		; glm::tvec3<unsigned int,1>::tvec3<unsigned int,1>
PUBLIC	??0?$tvec3@I$00@glm@@QAE@W4ctor@1@@Z		; glm::tvec3<unsigned int,1>::tvec3<unsigned int,1>
PUBLIC	??0?$tvec3@I$00@glm@@QAE@I@Z			; glm::tvec3<unsigned int,1>::tvec3<unsigned int,1>
PUBLIC	??0?$tvec3@I$00@glm@@QAE@III@Z			; glm::tvec3<unsigned int,1>::tvec3<unsigned int,1>
PUBLIC	??4?$tvec3@I$00@glm@@QAEAAU01@ABU01@@Z		; glm::tvec3<unsigned int,1>::operator=
PUBLIC	??E?$tvec3@I$00@glm@@QAEAAU01@XZ		; glm::tvec3<unsigned int,1>::operator++
PUBLIC	??F?$tvec3@I$00@glm@@QAEAAU01@XZ		; glm::tvec3<unsigned int,1>::operator--
PUBLIC	??E?$tvec3@I$00@glm@@QAE?AU01@H@Z		; glm::tvec3<unsigned int,1>::operator++
PUBLIC	??F?$tvec3@I$00@glm@@QAE?AU01@H@Z		; glm::tvec3<unsigned int,1>::operator--
PUBLIC	?length@?$tvec3@_K$00@glm@@SAHXZ		; glm::tvec3<unsigned __int64,1>::length
PUBLIC	??A?$tvec3@_K$00@glm@@QAEAA_KH@Z		; glm::tvec3<unsigned __int64,1>::operator[]
PUBLIC	??A?$tvec3@_K$00@glm@@QBEAB_KH@Z		; glm::tvec3<unsigned __int64,1>::operator[]
PUBLIC	??0?$tvec3@_K$00@glm@@QAE@XZ			; glm::tvec3<unsigned __int64,1>::tvec3<unsigned __int64,1>
PUBLIC	??0?$tvec3@_K$00@glm@@QAE@ABU01@@Z		; glm::tvec3<unsigned __int64,1>::tvec3<unsigned __int64,1>
PUBLIC	??0?$tvec3@_K$00@glm@@QAE@W4ctor@1@@Z		; glm::tvec3<unsigned __int64,1>::tvec3<unsigned __int64,1>
PUBLIC	??0?$tvec3@_K$00@glm@@QAE@_K@Z			; glm::tvec3<unsigned __int64,1>::tvec3<unsigned __int64,1>
PUBLIC	??0?$tvec3@_K$00@glm@@QAE@_K00@Z		; glm::tvec3<unsigned __int64,1>::tvec3<unsigned __int64,1>
PUBLIC	??4?$tvec3@_K$00@glm@@QAEAAU01@ABU01@@Z		; glm::tvec3<unsigned __int64,1>::operator=
PUBLIC	??E?$tvec3@_K$00@glm@@QAEAAU01@XZ		; glm::tvec3<unsigned __int64,1>::operator++
PUBLIC	??F?$tvec3@_K$00@glm@@QAEAAU01@XZ		; glm::tvec3<unsigned __int64,1>::operator--
PUBLIC	??E?$tvec3@_K$00@glm@@QAE?AU01@H@Z		; glm::tvec3<unsigned __int64,1>::operator++
PUBLIC	??F?$tvec3@_K$00@glm@@QAE?AU01@H@Z		; glm::tvec3<unsigned __int64,1>::operator--
PUBLIC	?length@?$tvec3@C$00@glm@@SAHXZ			; glm::tvec3<signed char,1>::length
PUBLIC	??A?$tvec3@C$00@glm@@QAEAACH@Z			; glm::tvec3<signed char,1>::operator[]
PUBLIC	??A?$tvec3@C$00@glm@@QBEABCH@Z			; glm::tvec3<signed char,1>::operator[]
PUBLIC	??0?$tvec3@C$00@glm@@QAE@XZ			; glm::tvec3<signed char,1>::tvec3<signed char,1>
PUBLIC	??0?$tvec3@C$00@glm@@QAE@ABU01@@Z		; glm::tvec3<signed char,1>::tvec3<signed char,1>
PUBLIC	??0?$tvec3@C$00@glm@@QAE@W4ctor@1@@Z		; glm::tvec3<signed char,1>::tvec3<signed char,1>
PUBLIC	??0?$tvec3@C$00@glm@@QAE@C@Z			; glm::tvec3<signed char,1>::tvec3<signed char,1>
PUBLIC	??0?$tvec3@C$00@glm@@QAE@CCC@Z			; glm::tvec3<signed char,1>::tvec3<signed char,1>
PUBLIC	??4?$tvec3@C$00@glm@@QAEAAU01@ABU01@@Z		; glm::tvec3<signed char,1>::operator=
PUBLIC	??E?$tvec3@C$00@glm@@QAEAAU01@XZ		; glm::tvec3<signed char,1>::operator++
PUBLIC	??F?$tvec3@C$00@glm@@QAEAAU01@XZ		; glm::tvec3<signed char,1>::operator--
PUBLIC	??E?$tvec3@C$00@glm@@QAE?AU01@H@Z		; glm::tvec3<signed char,1>::operator++
PUBLIC	??F?$tvec3@C$00@glm@@QAE?AU01@H@Z		; glm::tvec3<signed char,1>::operator--
PUBLIC	?length@?$tvec3@F$00@glm@@SAHXZ			; glm::tvec3<short,1>::length
PUBLIC	??A?$tvec3@F$00@glm@@QAEAAFH@Z			; glm::tvec3<short,1>::operator[]
PUBLIC	??A?$tvec3@F$00@glm@@QBEABFH@Z			; glm::tvec3<short,1>::operator[]
PUBLIC	??0?$tvec3@F$00@glm@@QAE@XZ			; glm::tvec3<short,1>::tvec3<short,1>
PUBLIC	??0?$tvec3@F$00@glm@@QAE@ABU01@@Z		; glm::tvec3<short,1>::tvec3<short,1>
PUBLIC	??0?$tvec3@F$00@glm@@QAE@W4ctor@1@@Z		; glm::tvec3<short,1>::tvec3<short,1>
PUBLIC	??0?$tvec3@F$00@glm@@QAE@F@Z			; glm::tvec3<short,1>::tvec3<short,1>
PUBLIC	??0?$tvec3@F$00@glm@@QAE@FFF@Z			; glm::tvec3<short,1>::tvec3<short,1>
PUBLIC	??4?$tvec3@F$00@glm@@QAEAAU01@ABU01@@Z		; glm::tvec3<short,1>::operator=
PUBLIC	??E?$tvec3@F$00@glm@@QAEAAU01@XZ		; glm::tvec3<short,1>::operator++
PUBLIC	??F?$tvec3@F$00@glm@@QAEAAU01@XZ		; glm::tvec3<short,1>::operator--
PUBLIC	??E?$tvec3@F$00@glm@@QAE?AU01@H@Z		; glm::tvec3<short,1>::operator++
PUBLIC	??F?$tvec3@F$00@glm@@QAE?AU01@H@Z		; glm::tvec3<short,1>::operator--
PUBLIC	?length@?$tvec3@H$00@glm@@SAHXZ			; glm::tvec3<int,1>::length
PUBLIC	??A?$tvec3@H$00@glm@@QAEAAHH@Z			; glm::tvec3<int,1>::operator[]
PUBLIC	??A?$tvec3@H$00@glm@@QBEABHH@Z			; glm::tvec3<int,1>::operator[]
PUBLIC	??0?$tvec3@H$00@glm@@QAE@XZ			; glm::tvec3<int,1>::tvec3<int,1>
PUBLIC	??0?$tvec3@H$00@glm@@QAE@ABU01@@Z		; glm::tvec3<int,1>::tvec3<int,1>
PUBLIC	??0?$tvec3@H$00@glm@@QAE@W4ctor@1@@Z		; glm::tvec3<int,1>::tvec3<int,1>
PUBLIC	??0?$tvec3@H$00@glm@@QAE@H@Z			; glm::tvec3<int,1>::tvec3<int,1>
PUBLIC	??0?$tvec3@H$00@glm@@QAE@HHH@Z			; glm::tvec3<int,1>::tvec3<int,1>
PUBLIC	??4?$tvec3@H$00@glm@@QAEAAU01@ABU01@@Z		; glm::tvec3<int,1>::operator=
PUBLIC	??E?$tvec3@H$00@glm@@QAEAAU01@XZ		; glm::tvec3<int,1>::operator++
PUBLIC	??F?$tvec3@H$00@glm@@QAEAAU01@XZ		; glm::tvec3<int,1>::operator--
PUBLIC	??E?$tvec3@H$00@glm@@QAE?AU01@H@Z		; glm::tvec3<int,1>::operator++
PUBLIC	??F?$tvec3@H$00@glm@@QAE?AU01@H@Z		; glm::tvec3<int,1>::operator--
PUBLIC	?length@?$tvec3@_J$00@glm@@SAHXZ		; glm::tvec3<__int64,1>::length
PUBLIC	??A?$tvec3@_J$00@glm@@QAEAA_JH@Z		; glm::tvec3<__int64,1>::operator[]
PUBLIC	??A?$tvec3@_J$00@glm@@QBEAB_JH@Z		; glm::tvec3<__int64,1>::operator[]
PUBLIC	??0?$tvec3@_J$00@glm@@QAE@XZ			; glm::tvec3<__int64,1>::tvec3<__int64,1>
PUBLIC	??0?$tvec3@_J$00@glm@@QAE@ABU01@@Z		; glm::tvec3<__int64,1>::tvec3<__int64,1>
PUBLIC	??0?$tvec3@_J$00@glm@@QAE@W4ctor@1@@Z		; glm::tvec3<__int64,1>::tvec3<__int64,1>
PUBLIC	??0?$tvec3@_J$00@glm@@QAE@_J@Z			; glm::tvec3<__int64,1>::tvec3<__int64,1>
PUBLIC	??0?$tvec3@_J$00@glm@@QAE@_J00@Z		; glm::tvec3<__int64,1>::tvec3<__int64,1>
PUBLIC	??4?$tvec3@_J$00@glm@@QAEAAU01@ABU01@@Z		; glm::tvec3<__int64,1>::operator=
PUBLIC	??E?$tvec3@_J$00@glm@@QAEAAU01@XZ		; glm::tvec3<__int64,1>::operator++
PUBLIC	??F?$tvec3@_J$00@glm@@QAEAAU01@XZ		; glm::tvec3<__int64,1>::operator--
PUBLIC	??E?$tvec3@_J$00@glm@@QAE?AU01@H@Z		; glm::tvec3<__int64,1>::operator++
PUBLIC	??F?$tvec3@_J$00@glm@@QAE?AU01@H@Z		; glm::tvec3<__int64,1>::operator--
PUBLIC	?length@?$tvec3@M$00@glm@@SAHXZ			; glm::tvec3<float,1>::length
PUBLIC	??A?$tvec3@M$00@glm@@QAEAAMH@Z			; glm::tvec3<float,1>::operator[]
PUBLIC	??A?$tvec3@M$00@glm@@QBEABMH@Z			; glm::tvec3<float,1>::operator[]
PUBLIC	??0?$tvec3@M$00@glm@@QAE@XZ			; glm::tvec3<float,1>::tvec3<float,1>
PUBLIC	??0?$tvec3@M$00@glm@@QAE@ABU01@@Z		; glm::tvec3<float,1>::tvec3<float,1>
PUBLIC	??0?$tvec3@M$00@glm@@QAE@W4ctor@1@@Z		; glm::tvec3<float,1>::tvec3<float,1>
PUBLIC	??0?$tvec3@M$00@glm@@QAE@M@Z			; glm::tvec3<float,1>::tvec3<float,1>
PUBLIC	??0?$tvec3@M$00@glm@@QAE@MMM@Z			; glm::tvec3<float,1>::tvec3<float,1>
PUBLIC	??4?$tvec3@M$00@glm@@QAEAAU01@ABU01@@Z		; glm::tvec3<float,1>::operator=
PUBLIC	??E?$tvec3@M$00@glm@@QAEAAU01@XZ		; glm::tvec3<float,1>::operator++
PUBLIC	??F?$tvec3@M$00@glm@@QAEAAU01@XZ		; glm::tvec3<float,1>::operator--
PUBLIC	??E?$tvec3@M$00@glm@@QAE?AU01@H@Z		; glm::tvec3<float,1>::operator++
PUBLIC	??F?$tvec3@M$00@glm@@QAE?AU01@H@Z		; glm::tvec3<float,1>::operator--
PUBLIC	?length@?$tvec3@N$00@glm@@SAHXZ			; glm::tvec3<double,1>::length
PUBLIC	??A?$tvec3@N$00@glm@@QAEAANH@Z			; glm::tvec3<double,1>::operator[]
PUBLIC	??A?$tvec3@N$00@glm@@QBEABNH@Z			; glm::tvec3<double,1>::operator[]
PUBLIC	??0?$tvec3@N$00@glm@@QAE@XZ			; glm::tvec3<double,1>::tvec3<double,1>
PUBLIC	??0?$tvec3@N$00@glm@@QAE@ABU01@@Z		; glm::tvec3<double,1>::tvec3<double,1>
PUBLIC	??0?$tvec3@N$00@glm@@QAE@W4ctor@1@@Z		; glm::tvec3<double,1>::tvec3<double,1>
PUBLIC	??0?$tvec3@N$00@glm@@QAE@N@Z			; glm::tvec3<double,1>::tvec3<double,1>
PUBLIC	??0?$tvec3@N$00@glm@@QAE@NNN@Z			; glm::tvec3<double,1>::tvec3<double,1>
PUBLIC	??4?$tvec3@N$00@glm@@QAEAAU01@ABU01@@Z		; glm::tvec3<double,1>::operator=
PUBLIC	??E?$tvec3@N$00@glm@@QAEAAU01@XZ		; glm::tvec3<double,1>::operator++
PUBLIC	??F?$tvec3@N$00@glm@@QAEAAU01@XZ		; glm::tvec3<double,1>::operator--
PUBLIC	??E?$tvec3@N$00@glm@@QAE?AU01@H@Z		; glm::tvec3<double,1>::operator++
PUBLIC	??F?$tvec3@N$00@glm@@QAE?AU01@H@Z		; glm::tvec3<double,1>::operator--
PUBLIC	?length@?$tvec3@E$0A@@glm@@SAHXZ		; glm::tvec3<unsigned char,0>::length
PUBLIC	??A?$tvec3@E$0A@@glm@@QAEAAEH@Z			; glm::tvec3<unsigned char,0>::operator[]
PUBLIC	??A?$tvec3@E$0A@@glm@@QBEABEH@Z			; glm::tvec3<unsigned char,0>::operator[]
PUBLIC	??0?$tvec3@E$0A@@glm@@QAE@XZ			; glm::tvec3<unsigned char,0>::tvec3<unsigned char,0>
PUBLIC	??0?$tvec3@E$0A@@glm@@QAE@ABU01@@Z		; glm::tvec3<unsigned char,0>::tvec3<unsigned char,0>
PUBLIC	??0?$tvec3@E$0A@@glm@@QAE@W4ctor@1@@Z		; glm::tvec3<unsigned char,0>::tvec3<unsigned char,0>
PUBLIC	??0?$tvec3@E$0A@@glm@@QAE@E@Z			; glm::tvec3<unsigned char,0>::tvec3<unsigned char,0>
PUBLIC	??0?$tvec3@E$0A@@glm@@QAE@EEE@Z			; glm::tvec3<unsigned char,0>::tvec3<unsigned char,0>
PUBLIC	??4?$tvec3@E$0A@@glm@@QAEAAU01@ABU01@@Z		; glm::tvec3<unsigned char,0>::operator=
PUBLIC	??E?$tvec3@E$0A@@glm@@QAEAAU01@XZ		; glm::tvec3<unsigned char,0>::operator++
PUBLIC	??F?$tvec3@E$0A@@glm@@QAEAAU01@XZ		; glm::tvec3<unsigned char,0>::operator--
PUBLIC	??E?$tvec3@E$0A@@glm@@QAE?AU01@H@Z		; glm::tvec3<unsigned char,0>::operator++
PUBLIC	??F?$tvec3@E$0A@@glm@@QAE?AU01@H@Z		; glm::tvec3<unsigned char,0>::operator--
PUBLIC	?length@?$tvec3@G$0A@@glm@@SAHXZ		; glm::tvec3<unsigned short,0>::length
PUBLIC	??A?$tvec3@G$0A@@glm@@QAEAAGH@Z			; glm::tvec3<unsigned short,0>::operator[]
PUBLIC	??A?$tvec3@G$0A@@glm@@QBEABGH@Z			; glm::tvec3<unsigned short,0>::operator[]
PUBLIC	??0?$tvec3@G$0A@@glm@@QAE@XZ			; glm::tvec3<unsigned short,0>::tvec3<unsigned short,0>
PUBLIC	??0?$tvec3@G$0A@@glm@@QAE@ABU01@@Z		; glm::tvec3<unsigned short,0>::tvec3<unsigned short,0>
PUBLIC	??0?$tvec3@G$0A@@glm@@QAE@W4ctor@1@@Z		; glm::tvec3<unsigned short,0>::tvec3<unsigned short,0>
PUBLIC	??0?$tvec3@G$0A@@glm@@QAE@G@Z			; glm::tvec3<unsigned short,0>::tvec3<unsigned short,0>
PUBLIC	??0?$tvec3@G$0A@@glm@@QAE@GGG@Z			; glm::tvec3<unsigned short,0>::tvec3<unsigned short,0>
PUBLIC	??4?$tvec3@G$0A@@glm@@QAEAAU01@ABU01@@Z		; glm::tvec3<unsigned short,0>::operator=
PUBLIC	??E?$tvec3@G$0A@@glm@@QAEAAU01@XZ		; glm::tvec3<unsigned short,0>::operator++
PUBLIC	??F?$tvec3@G$0A@@glm@@QAEAAU01@XZ		; glm::tvec3<unsigned short,0>::operator--
PUBLIC	??E?$tvec3@G$0A@@glm@@QAE?AU01@H@Z		; glm::tvec3<unsigned short,0>::operator++
PUBLIC	??F?$tvec3@G$0A@@glm@@QAE?AU01@H@Z		; glm::tvec3<unsigned short,0>::operator--
PUBLIC	?length@?$tvec3@I$0A@@glm@@SAHXZ		; glm::tvec3<unsigned int,0>::length
PUBLIC	??A?$tvec3@I$0A@@glm@@QAEAAIH@Z			; glm::tvec3<unsigned int,0>::operator[]
PUBLIC	??A?$tvec3@I$0A@@glm@@QBEABIH@Z			; glm::tvec3<unsigned int,0>::operator[]
PUBLIC	??0?$tvec3@I$0A@@glm@@QAE@XZ			; glm::tvec3<unsigned int,0>::tvec3<unsigned int,0>
PUBLIC	??0?$tvec3@I$0A@@glm@@QAE@ABU01@@Z		; glm::tvec3<unsigned int,0>::tvec3<unsigned int,0>
PUBLIC	??0?$tvec3@I$0A@@glm@@QAE@W4ctor@1@@Z		; glm::tvec3<unsigned int,0>::tvec3<unsigned int,0>
PUBLIC	??0?$tvec3@I$0A@@glm@@QAE@I@Z			; glm::tvec3<unsigned int,0>::tvec3<unsigned int,0>
PUBLIC	??0?$tvec3@I$0A@@glm@@QAE@III@Z			; glm::tvec3<unsigned int,0>::tvec3<unsigned int,0>
PUBLIC	??4?$tvec3@I$0A@@glm@@QAEAAU01@ABU01@@Z		; glm::tvec3<unsigned int,0>::operator=
PUBLIC	??E?$tvec3@I$0A@@glm@@QAEAAU01@XZ		; glm::tvec3<unsigned int,0>::operator++
PUBLIC	??F?$tvec3@I$0A@@glm@@QAEAAU01@XZ		; glm::tvec3<unsigned int,0>::operator--
PUBLIC	??E?$tvec3@I$0A@@glm@@QAE?AU01@H@Z		; glm::tvec3<unsigned int,0>::operator++
PUBLIC	??F?$tvec3@I$0A@@glm@@QAE?AU01@H@Z		; glm::tvec3<unsigned int,0>::operator--
PUBLIC	?length@?$tvec3@_K$0A@@glm@@SAHXZ		; glm::tvec3<unsigned __int64,0>::length
PUBLIC	??A?$tvec3@_K$0A@@glm@@QAEAA_KH@Z		; glm::tvec3<unsigned __int64,0>::operator[]
PUBLIC	??A?$tvec3@_K$0A@@glm@@QBEAB_KH@Z		; glm::tvec3<unsigned __int64,0>::operator[]
PUBLIC	??0?$tvec3@_K$0A@@glm@@QAE@XZ			; glm::tvec3<unsigned __int64,0>::tvec3<unsigned __int64,0>
PUBLIC	??0?$tvec3@_K$0A@@glm@@QAE@ABU01@@Z		; glm::tvec3<unsigned __int64,0>::tvec3<unsigned __int64,0>
PUBLIC	??0?$tvec3@_K$0A@@glm@@QAE@W4ctor@1@@Z		; glm::tvec3<unsigned __int64,0>::tvec3<unsigned __int64,0>
PUBLIC	??0?$tvec3@_K$0A@@glm@@QAE@_K@Z			; glm::tvec3<unsigned __int64,0>::tvec3<unsigned __int64,0>
PUBLIC	??0?$tvec3@_K$0A@@glm@@QAE@_K00@Z		; glm::tvec3<unsigned __int64,0>::tvec3<unsigned __int64,0>
PUBLIC	??4?$tvec3@_K$0A@@glm@@QAEAAU01@ABU01@@Z	; glm::tvec3<unsigned __int64,0>::operator=
PUBLIC	??E?$tvec3@_K$0A@@glm@@QAEAAU01@XZ		; glm::tvec3<unsigned __int64,0>::operator++
PUBLIC	??F?$tvec3@_K$0A@@glm@@QAEAAU01@XZ		; glm::tvec3<unsigned __int64,0>::operator--
PUBLIC	??E?$tvec3@_K$0A@@glm@@QAE?AU01@H@Z		; glm::tvec3<unsigned __int64,0>::operator++
PUBLIC	??F?$tvec3@_K$0A@@glm@@QAE?AU01@H@Z		; glm::tvec3<unsigned __int64,0>::operator--
PUBLIC	?length@?$tvec3@C$0A@@glm@@SAHXZ		; glm::tvec3<signed char,0>::length
PUBLIC	??A?$tvec3@C$0A@@glm@@QAEAACH@Z			; glm::tvec3<signed char,0>::operator[]
PUBLIC	??A?$tvec3@C$0A@@glm@@QBEABCH@Z			; glm::tvec3<signed char,0>::operator[]
PUBLIC	??0?$tvec3@C$0A@@glm@@QAE@XZ			; glm::tvec3<signed char,0>::tvec3<signed char,0>
PUBLIC	??0?$tvec3@C$0A@@glm@@QAE@ABU01@@Z		; glm::tvec3<signed char,0>::tvec3<signed char,0>
PUBLIC	??0?$tvec3@C$0A@@glm@@QAE@W4ctor@1@@Z		; glm::tvec3<signed char,0>::tvec3<signed char,0>
PUBLIC	??0?$tvec3@C$0A@@glm@@QAE@C@Z			; glm::tvec3<signed char,0>::tvec3<signed char,0>
PUBLIC	??0?$tvec3@C$0A@@glm@@QAE@CCC@Z			; glm::tvec3<signed char,0>::tvec3<signed char,0>
PUBLIC	??4?$tvec3@C$0A@@glm@@QAEAAU01@ABU01@@Z		; glm::tvec3<signed char,0>::operator=
PUBLIC	??E?$tvec3@C$0A@@glm@@QAEAAU01@XZ		; glm::tvec3<signed char,0>::operator++
PUBLIC	??F?$tvec3@C$0A@@glm@@QAEAAU01@XZ		; glm::tvec3<signed char,0>::operator--
PUBLIC	??E?$tvec3@C$0A@@glm@@QAE?AU01@H@Z		; glm::tvec3<signed char,0>::operator++
PUBLIC	??F?$tvec3@C$0A@@glm@@QAE?AU01@H@Z		; glm::tvec3<signed char,0>::operator--
PUBLIC	?length@?$tvec3@F$0A@@glm@@SAHXZ		; glm::tvec3<short,0>::length
PUBLIC	??A?$tvec3@F$0A@@glm@@QAEAAFH@Z			; glm::tvec3<short,0>::operator[]
PUBLIC	??A?$tvec3@F$0A@@glm@@QBEABFH@Z			; glm::tvec3<short,0>::operator[]
PUBLIC	??0?$tvec3@F$0A@@glm@@QAE@XZ			; glm::tvec3<short,0>::tvec3<short,0>
PUBLIC	??0?$tvec3@F$0A@@glm@@QAE@ABU01@@Z		; glm::tvec3<short,0>::tvec3<short,0>
PUBLIC	??0?$tvec3@F$0A@@glm@@QAE@W4ctor@1@@Z		; glm::tvec3<short,0>::tvec3<short,0>
PUBLIC	??0?$tvec3@F$0A@@glm@@QAE@F@Z			; glm::tvec3<short,0>::tvec3<short,0>
PUBLIC	??0?$tvec3@F$0A@@glm@@QAE@FFF@Z			; glm::tvec3<short,0>::tvec3<short,0>
PUBLIC	??4?$tvec3@F$0A@@glm@@QAEAAU01@ABU01@@Z		; glm::tvec3<short,0>::operator=
PUBLIC	??E?$tvec3@F$0A@@glm@@QAEAAU01@XZ		; glm::tvec3<short,0>::operator++
PUBLIC	??F?$tvec3@F$0A@@glm@@QAEAAU01@XZ		; glm::tvec3<short,0>::operator--
PUBLIC	??E?$tvec3@F$0A@@glm@@QAE?AU01@H@Z		; glm::tvec3<short,0>::operator++
PUBLIC	??F?$tvec3@F$0A@@glm@@QAE?AU01@H@Z		; glm::tvec3<short,0>::operator--
PUBLIC	?length@?$tvec3@H$0A@@glm@@SAHXZ		; glm::tvec3<int,0>::length
PUBLIC	??A?$tvec3@H$0A@@glm@@QAEAAHH@Z			; glm::tvec3<int,0>::operator[]
PUBLIC	??A?$tvec3@H$0A@@glm@@QBEABHH@Z			; glm::tvec3<int,0>::operator[]
PUBLIC	??0?$tvec3@H$0A@@glm@@QAE@XZ			; glm::tvec3<int,0>::tvec3<int,0>
PUBLIC	??0?$tvec3@H$0A@@glm@@QAE@ABU01@@Z		; glm::tvec3<int,0>::tvec3<int,0>
PUBLIC	??0?$tvec3@H$0A@@glm@@QAE@W4ctor@1@@Z		; glm::tvec3<int,0>::tvec3<int,0>
PUBLIC	??0?$tvec3@H$0A@@glm@@QAE@H@Z			; glm::tvec3<int,0>::tvec3<int,0>
PUBLIC	??0?$tvec3@H$0A@@glm@@QAE@HHH@Z			; glm::tvec3<int,0>::tvec3<int,0>
PUBLIC	??4?$tvec3@H$0A@@glm@@QAEAAU01@ABU01@@Z		; glm::tvec3<int,0>::operator=
PUBLIC	??E?$tvec3@H$0A@@glm@@QAEAAU01@XZ		; glm::tvec3<int,0>::operator++
PUBLIC	??F?$tvec3@H$0A@@glm@@QAEAAU01@XZ		; glm::tvec3<int,0>::operator--
PUBLIC	??E?$tvec3@H$0A@@glm@@QAE?AU01@H@Z		; glm::tvec3<int,0>::operator++
PUBLIC	??F?$tvec3@H$0A@@glm@@QAE?AU01@H@Z		; glm::tvec3<int,0>::operator--
PUBLIC	?length@?$tvec3@_J$0A@@glm@@SAHXZ		; glm::tvec3<__int64,0>::length
PUBLIC	??A?$tvec3@_J$0A@@glm@@QAEAA_JH@Z		; glm::tvec3<__int64,0>::operator[]
PUBLIC	??A?$tvec3@_J$0A@@glm@@QBEAB_JH@Z		; glm::tvec3<__int64,0>::operator[]
PUBLIC	??0?$tvec3@_J$0A@@glm@@QAE@XZ			; glm::tvec3<__int64,0>::tvec3<__int64,0>
PUBLIC	??0?$tvec3@_J$0A@@glm@@QAE@ABU01@@Z		; glm::tvec3<__int64,0>::tvec3<__int64,0>
PUBLIC	??0?$tvec3@_J$0A@@glm@@QAE@W4ctor@1@@Z		; glm::tvec3<__int64,0>::tvec3<__int64,0>
PUBLIC	??0?$tvec3@_J$0A@@glm@@QAE@_J@Z			; glm::tvec3<__int64,0>::tvec3<__int64,0>
PUBLIC	??0?$tvec3@_J$0A@@glm@@QAE@_J00@Z		; glm::tvec3<__int64,0>::tvec3<__int64,0>
PUBLIC	??4?$tvec3@_J$0A@@glm@@QAEAAU01@ABU01@@Z	; glm::tvec3<__int64,0>::operator=
PUBLIC	??E?$tvec3@_J$0A@@glm@@QAEAAU01@XZ		; glm::tvec3<__int64,0>::operator++
PUBLIC	??F?$tvec3@_J$0A@@glm@@QAEAAU01@XZ		; glm::tvec3<__int64,0>::operator--
PUBLIC	??E?$tvec3@_J$0A@@glm@@QAE?AU01@H@Z		; glm::tvec3<__int64,0>::operator++
PUBLIC	??F?$tvec3@_J$0A@@glm@@QAE?AU01@H@Z		; glm::tvec3<__int64,0>::operator--
PUBLIC	?length@?$tvec3@M$0A@@glm@@SAHXZ		; glm::tvec3<float,0>::length
PUBLIC	??A?$tvec3@M$0A@@glm@@QAEAAMH@Z			; glm::tvec3<float,0>::operator[]
PUBLIC	??A?$tvec3@M$0A@@glm@@QBEABMH@Z			; glm::tvec3<float,0>::operator[]
PUBLIC	??0?$tvec3@M$0A@@glm@@QAE@XZ			; glm::tvec3<float,0>::tvec3<float,0>
PUBLIC	??0?$tvec3@M$0A@@glm@@QAE@ABU01@@Z		; glm::tvec3<float,0>::tvec3<float,0>
PUBLIC	??0?$tvec3@M$0A@@glm@@QAE@W4ctor@1@@Z		; glm::tvec3<float,0>::tvec3<float,0>
PUBLIC	??0?$tvec3@M$0A@@glm@@QAE@M@Z			; glm::tvec3<float,0>::tvec3<float,0>
PUBLIC	??0?$tvec3@M$0A@@glm@@QAE@MMM@Z			; glm::tvec3<float,0>::tvec3<float,0>
PUBLIC	??4?$tvec3@M$0A@@glm@@QAEAAU01@ABU01@@Z		; glm::tvec3<float,0>::operator=
PUBLIC	??E?$tvec3@M$0A@@glm@@QAEAAU01@XZ		; glm::tvec3<float,0>::operator++
PUBLIC	??F?$tvec3@M$0A@@glm@@QAEAAU01@XZ		; glm::tvec3<float,0>::operator--
PUBLIC	??E?$tvec3@M$0A@@glm@@QAE?AU01@H@Z		; glm::tvec3<float,0>::operator++
PUBLIC	??F?$tvec3@M$0A@@glm@@QAE?AU01@H@Z		; glm::tvec3<float,0>::operator--
PUBLIC	?length@?$tvec3@N$0A@@glm@@SAHXZ		; glm::tvec3<double,0>::length
PUBLIC	??A?$tvec3@N$0A@@glm@@QAEAANH@Z			; glm::tvec3<double,0>::operator[]
PUBLIC	??A?$tvec3@N$0A@@glm@@QBEABNH@Z			; glm::tvec3<double,0>::operator[]
PUBLIC	??0?$tvec3@N$0A@@glm@@QAE@XZ			; glm::tvec3<double,0>::tvec3<double,0>
PUBLIC	??0?$tvec3@N$0A@@glm@@QAE@ABU01@@Z		; glm::tvec3<double,0>::tvec3<double,0>
PUBLIC	??0?$tvec3@N$0A@@glm@@QAE@W4ctor@1@@Z		; glm::tvec3<double,0>::tvec3<double,0>
PUBLIC	??0?$tvec3@N$0A@@glm@@QAE@N@Z			; glm::tvec3<double,0>::tvec3<double,0>
PUBLIC	??0?$tvec3@N$0A@@glm@@QAE@NNN@Z			; glm::tvec3<double,0>::tvec3<double,0>
PUBLIC	??4?$tvec3@N$0A@@glm@@QAEAAU01@ABU01@@Z		; glm::tvec3<double,0>::operator=
PUBLIC	??E?$tvec3@N$0A@@glm@@QAEAAU01@XZ		; glm::tvec3<double,0>::operator++
PUBLIC	??F?$tvec3@N$0A@@glm@@QAEAAU01@XZ		; glm::tvec3<double,0>::operator--
PUBLIC	??E?$tvec3@N$0A@@glm@@QAE?AU01@H@Z		; glm::tvec3<double,0>::operator++
PUBLIC	??F?$tvec3@N$0A@@glm@@QAE?AU01@H@Z		; glm::tvec3<double,0>::operator--
PUBLIC	?length@?$tvec4@E$01@glm@@SAHXZ			; glm::tvec4<unsigned char,2>::length
PUBLIC	??A?$tvec4@E$01@glm@@QAEAAEH@Z			; glm::tvec4<unsigned char,2>::operator[]
PUBLIC	??A?$tvec4@E$01@glm@@QBEABEH@Z			; glm::tvec4<unsigned char,2>::operator[]
PUBLIC	??0?$tvec4@E$01@glm@@QAE@XZ			; glm::tvec4<unsigned char,2>::tvec4<unsigned char,2>
PUBLIC	??0?$tvec4@E$01@glm@@QAE@ABU01@@Z		; glm::tvec4<unsigned char,2>::tvec4<unsigned char,2>
PUBLIC	??0?$tvec4@E$01@glm@@QAE@W4ctor@1@@Z		; glm::tvec4<unsigned char,2>::tvec4<unsigned char,2>
PUBLIC	??0?$tvec4@E$01@glm@@QAE@E@Z			; glm::tvec4<unsigned char,2>::tvec4<unsigned char,2>
PUBLIC	??0?$tvec4@E$01@glm@@QAE@EEEE@Z			; glm::tvec4<unsigned char,2>::tvec4<unsigned char,2>
PUBLIC	??4?$tvec4@E$01@glm@@QAEAAU01@ABU01@@Z		; glm::tvec4<unsigned char,2>::operator=
PUBLIC	??E?$tvec4@E$01@glm@@QAEAAU01@XZ		; glm::tvec4<unsigned char,2>::operator++
PUBLIC	??F?$tvec4@E$01@glm@@QAEAAU01@XZ		; glm::tvec4<unsigned char,2>::operator--
PUBLIC	??E?$tvec4@E$01@glm@@QAE?AU01@H@Z		; glm::tvec4<unsigned char,2>::operator++
PUBLIC	??F?$tvec4@E$01@glm@@QAE?AU01@H@Z		; glm::tvec4<unsigned char,2>::operator--
PUBLIC	?length@?$tvec4@G$01@glm@@SAHXZ			; glm::tvec4<unsigned short,2>::length
PUBLIC	??A?$tvec4@G$01@glm@@QAEAAGH@Z			; glm::tvec4<unsigned short,2>::operator[]
PUBLIC	??A?$tvec4@G$01@glm@@QBEABGH@Z			; glm::tvec4<unsigned short,2>::operator[]
PUBLIC	??0?$tvec4@G$01@glm@@QAE@XZ			; glm::tvec4<unsigned short,2>::tvec4<unsigned short,2>
PUBLIC	??0?$tvec4@G$01@glm@@QAE@ABU01@@Z		; glm::tvec4<unsigned short,2>::tvec4<unsigned short,2>
PUBLIC	??0?$tvec4@G$01@glm@@QAE@W4ctor@1@@Z		; glm::tvec4<unsigned short,2>::tvec4<unsigned short,2>
PUBLIC	??0?$tvec4@G$01@glm@@QAE@G@Z			; glm::tvec4<unsigned short,2>::tvec4<unsigned short,2>
PUBLIC	??0?$tvec4@G$01@glm@@QAE@GGGG@Z			; glm::tvec4<unsigned short,2>::tvec4<unsigned short,2>
PUBLIC	??4?$tvec4@G$01@glm@@QAEAAU01@ABU01@@Z		; glm::tvec4<unsigned short,2>::operator=
PUBLIC	??E?$tvec4@G$01@glm@@QAEAAU01@XZ		; glm::tvec4<unsigned short,2>::operator++
PUBLIC	??F?$tvec4@G$01@glm@@QAEAAU01@XZ		; glm::tvec4<unsigned short,2>::operator--
PUBLIC	??E?$tvec4@G$01@glm@@QAE?AU01@H@Z		; glm::tvec4<unsigned short,2>::operator++
PUBLIC	??F?$tvec4@G$01@glm@@QAE?AU01@H@Z		; glm::tvec4<unsigned short,2>::operator--
PUBLIC	?length@?$tvec4@I$01@glm@@SAHXZ			; glm::tvec4<unsigned int,2>::length
PUBLIC	??A?$tvec4@I$01@glm@@QAEAAIH@Z			; glm::tvec4<unsigned int,2>::operator[]
PUBLIC	??A?$tvec4@I$01@glm@@QBEABIH@Z			; glm::tvec4<unsigned int,2>::operator[]
PUBLIC	??0?$tvec4@I$01@glm@@QAE@XZ			; glm::tvec4<unsigned int,2>::tvec4<unsigned int,2>
PUBLIC	??0?$tvec4@I$01@glm@@QAE@ABU01@@Z		; glm::tvec4<unsigned int,2>::tvec4<unsigned int,2>
PUBLIC	??0?$tvec4@I$01@glm@@QAE@W4ctor@1@@Z		; glm::tvec4<unsigned int,2>::tvec4<unsigned int,2>
PUBLIC	??0?$tvec4@I$01@glm@@QAE@I@Z			; glm::tvec4<unsigned int,2>::tvec4<unsigned int,2>
PUBLIC	??0?$tvec4@I$01@glm@@QAE@IIII@Z			; glm::tvec4<unsigned int,2>::tvec4<unsigned int,2>
PUBLIC	??4?$tvec4@I$01@glm@@QAEAAU01@ABU01@@Z		; glm::tvec4<unsigned int,2>::operator=
PUBLIC	??E?$tvec4@I$01@glm@@QAEAAU01@XZ		; glm::tvec4<unsigned int,2>::operator++
PUBLIC	??F?$tvec4@I$01@glm@@QAEAAU01@XZ		; glm::tvec4<unsigned int,2>::operator--
PUBLIC	??E?$tvec4@I$01@glm@@QAE?AU01@H@Z		; glm::tvec4<unsigned int,2>::operator++
PUBLIC	??F?$tvec4@I$01@glm@@QAE?AU01@H@Z		; glm::tvec4<unsigned int,2>::operator--
PUBLIC	?length@?$tvec4@_K$01@glm@@SAHXZ		; glm::tvec4<unsigned __int64,2>::length
PUBLIC	??A?$tvec4@_K$01@glm@@QAEAA_KH@Z		; glm::tvec4<unsigned __int64,2>::operator[]
PUBLIC	??A?$tvec4@_K$01@glm@@QBEAB_KH@Z		; glm::tvec4<unsigned __int64,2>::operator[]
PUBLIC	??0?$tvec4@_K$01@glm@@QAE@XZ			; glm::tvec4<unsigned __int64,2>::tvec4<unsigned __int64,2>
PUBLIC	??0?$tvec4@_K$01@glm@@QAE@ABU01@@Z		; glm::tvec4<unsigned __int64,2>::tvec4<unsigned __int64,2>
PUBLIC	??0?$tvec4@_K$01@glm@@QAE@W4ctor@1@@Z		; glm::tvec4<unsigned __int64,2>::tvec4<unsigned __int64,2>
PUBLIC	??0?$tvec4@_K$01@glm@@QAE@_K@Z			; glm::tvec4<unsigned __int64,2>::tvec4<unsigned __int64,2>
PUBLIC	??0?$tvec4@_K$01@glm@@QAE@_K000@Z		; glm::tvec4<unsigned __int64,2>::tvec4<unsigned __int64,2>
PUBLIC	??4?$tvec4@_K$01@glm@@QAEAAU01@ABU01@@Z		; glm::tvec4<unsigned __int64,2>::operator=
PUBLIC	??E?$tvec4@_K$01@glm@@QAEAAU01@XZ		; glm::tvec4<unsigned __int64,2>::operator++
PUBLIC	??F?$tvec4@_K$01@glm@@QAEAAU01@XZ		; glm::tvec4<unsigned __int64,2>::operator--
PUBLIC	??E?$tvec4@_K$01@glm@@QAE?AU01@H@Z		; glm::tvec4<unsigned __int64,2>::operator++
PUBLIC	??F?$tvec4@_K$01@glm@@QAE?AU01@H@Z		; glm::tvec4<unsigned __int64,2>::operator--
PUBLIC	?length@?$tvec4@C$01@glm@@SAHXZ			; glm::tvec4<signed char,2>::length
PUBLIC	??A?$tvec4@C$01@glm@@QAEAACH@Z			; glm::tvec4<signed char,2>::operator[]
PUBLIC	??A?$tvec4@C$01@glm@@QBEABCH@Z			; glm::tvec4<signed char,2>::operator[]
PUBLIC	??0?$tvec4@C$01@glm@@QAE@XZ			; glm::tvec4<signed char,2>::tvec4<signed char,2>
PUBLIC	??0?$tvec4@C$01@glm@@QAE@ABU01@@Z		; glm::tvec4<signed char,2>::tvec4<signed char,2>
PUBLIC	??0?$tvec4@C$01@glm@@QAE@W4ctor@1@@Z		; glm::tvec4<signed char,2>::tvec4<signed char,2>
PUBLIC	??0?$tvec4@C$01@glm@@QAE@C@Z			; glm::tvec4<signed char,2>::tvec4<signed char,2>
PUBLIC	??0?$tvec4@C$01@glm@@QAE@CCCC@Z			; glm::tvec4<signed char,2>::tvec4<signed char,2>
PUBLIC	??4?$tvec4@C$01@glm@@QAEAAU01@ABU01@@Z		; glm::tvec4<signed char,2>::operator=
PUBLIC	??E?$tvec4@C$01@glm@@QAEAAU01@XZ		; glm::tvec4<signed char,2>::operator++
PUBLIC	??F?$tvec4@C$01@glm@@QAEAAU01@XZ		; glm::tvec4<signed char,2>::operator--
PUBLIC	??E?$tvec4@C$01@glm@@QAE?AU01@H@Z		; glm::tvec4<signed char,2>::operator++
PUBLIC	??F?$tvec4@C$01@glm@@QAE?AU01@H@Z		; glm::tvec4<signed char,2>::operator--
PUBLIC	?length@?$tvec4@F$01@glm@@SAHXZ			; glm::tvec4<short,2>::length
PUBLIC	??A?$tvec4@F$01@glm@@QAEAAFH@Z			; glm::tvec4<short,2>::operator[]
PUBLIC	??A?$tvec4@F$01@glm@@QBEABFH@Z			; glm::tvec4<short,2>::operator[]
PUBLIC	??0?$tvec4@F$01@glm@@QAE@XZ			; glm::tvec4<short,2>::tvec4<short,2>
PUBLIC	??0?$tvec4@F$01@glm@@QAE@ABU01@@Z		; glm::tvec4<short,2>::tvec4<short,2>
PUBLIC	??0?$tvec4@F$01@glm@@QAE@W4ctor@1@@Z		; glm::tvec4<short,2>::tvec4<short,2>
PUBLIC	??0?$tvec4@F$01@glm@@QAE@F@Z			; glm::tvec4<short,2>::tvec4<short,2>
PUBLIC	??0?$tvec4@F$01@glm@@QAE@FFFF@Z			; glm::tvec4<short,2>::tvec4<short,2>
PUBLIC	??4?$tvec4@F$01@glm@@QAEAAU01@ABU01@@Z		; glm::tvec4<short,2>::operator=
PUBLIC	??E?$tvec4@F$01@glm@@QAEAAU01@XZ		; glm::tvec4<short,2>::operator++
PUBLIC	??F?$tvec4@F$01@glm@@QAEAAU01@XZ		; glm::tvec4<short,2>::operator--
PUBLIC	??E?$tvec4@F$01@glm@@QAE?AU01@H@Z		; glm::tvec4<short,2>::operator++
PUBLIC	??F?$tvec4@F$01@glm@@QAE?AU01@H@Z		; glm::tvec4<short,2>::operator--
PUBLIC	?length@?$tvec4@H$01@glm@@SAHXZ			; glm::tvec4<int,2>::length
PUBLIC	??A?$tvec4@H$01@glm@@QAEAAHH@Z			; glm::tvec4<int,2>::operator[]
PUBLIC	??A?$tvec4@H$01@glm@@QBEABHH@Z			; glm::tvec4<int,2>::operator[]
PUBLIC	??0?$tvec4@H$01@glm@@QAE@XZ			; glm::tvec4<int,2>::tvec4<int,2>
PUBLIC	??0?$tvec4@H$01@glm@@QAE@ABU01@@Z		; glm::tvec4<int,2>::tvec4<int,2>
PUBLIC	??0?$tvec4@H$01@glm@@QAE@W4ctor@1@@Z		; glm::tvec4<int,2>::tvec4<int,2>
PUBLIC	??0?$tvec4@H$01@glm@@QAE@H@Z			; glm::tvec4<int,2>::tvec4<int,2>
PUBLIC	??0?$tvec4@H$01@glm@@QAE@HHHH@Z			; glm::tvec4<int,2>::tvec4<int,2>
PUBLIC	??4?$tvec4@H$01@glm@@QAEAAU01@ABU01@@Z		; glm::tvec4<int,2>::operator=
PUBLIC	??E?$tvec4@H$01@glm@@QAEAAU01@XZ		; glm::tvec4<int,2>::operator++
PUBLIC	??F?$tvec4@H$01@glm@@QAEAAU01@XZ		; glm::tvec4<int,2>::operator--
PUBLIC	??E?$tvec4@H$01@glm@@QAE?AU01@H@Z		; glm::tvec4<int,2>::operator++
PUBLIC	??F?$tvec4@H$01@glm@@QAE?AU01@H@Z		; glm::tvec4<int,2>::operator--
PUBLIC	?length@?$tvec4@_J$01@glm@@SAHXZ		; glm::tvec4<__int64,2>::length
PUBLIC	??A?$tvec4@_J$01@glm@@QAEAA_JH@Z		; glm::tvec4<__int64,2>::operator[]
PUBLIC	??A?$tvec4@_J$01@glm@@QBEAB_JH@Z		; glm::tvec4<__int64,2>::operator[]
PUBLIC	??0?$tvec4@_J$01@glm@@QAE@XZ			; glm::tvec4<__int64,2>::tvec4<__int64,2>
PUBLIC	??0?$tvec4@_J$01@glm@@QAE@ABU01@@Z		; glm::tvec4<__int64,2>::tvec4<__int64,2>
PUBLIC	??0?$tvec4@_J$01@glm@@QAE@W4ctor@1@@Z		; glm::tvec4<__int64,2>::tvec4<__int64,2>
PUBLIC	??0?$tvec4@_J$01@glm@@QAE@_J@Z			; glm::tvec4<__int64,2>::tvec4<__int64,2>
PUBLIC	??0?$tvec4@_J$01@glm@@QAE@_J000@Z		; glm::tvec4<__int64,2>::tvec4<__int64,2>
PUBLIC	??4?$tvec4@_J$01@glm@@QAEAAU01@ABU01@@Z		; glm::tvec4<__int64,2>::operator=
PUBLIC	??E?$tvec4@_J$01@glm@@QAEAAU01@XZ		; glm::tvec4<__int64,2>::operator++
PUBLIC	??F?$tvec4@_J$01@glm@@QAEAAU01@XZ		; glm::tvec4<__int64,2>::operator--
PUBLIC	??E?$tvec4@_J$01@glm@@QAE?AU01@H@Z		; glm::tvec4<__int64,2>::operator++
PUBLIC	??F?$tvec4@_J$01@glm@@QAE?AU01@H@Z		; glm::tvec4<__int64,2>::operator--
PUBLIC	?length@?$tvec4@M$01@glm@@SAHXZ			; glm::tvec4<float,2>::length
PUBLIC	??A?$tvec4@M$01@glm@@QAEAAMH@Z			; glm::tvec4<float,2>::operator[]
PUBLIC	??A?$tvec4@M$01@glm@@QBEABMH@Z			; glm::tvec4<float,2>::operator[]
PUBLIC	??0?$tvec4@M$01@glm@@QAE@XZ			; glm::tvec4<float,2>::tvec4<float,2>
PUBLIC	??0?$tvec4@M$01@glm@@QAE@ABU01@@Z		; glm::tvec4<float,2>::tvec4<float,2>
PUBLIC	??0?$tvec4@M$01@glm@@QAE@W4ctor@1@@Z		; glm::tvec4<float,2>::tvec4<float,2>
PUBLIC	??0?$tvec4@M$01@glm@@QAE@M@Z			; glm::tvec4<float,2>::tvec4<float,2>
PUBLIC	??0?$tvec4@M$01@glm@@QAE@MMMM@Z			; glm::tvec4<float,2>::tvec4<float,2>
PUBLIC	??4?$tvec4@M$01@glm@@QAEAAU01@ABU01@@Z		; glm::tvec4<float,2>::operator=
PUBLIC	??E?$tvec4@M$01@glm@@QAEAAU01@XZ		; glm::tvec4<float,2>::operator++
PUBLIC	??F?$tvec4@M$01@glm@@QAEAAU01@XZ		; glm::tvec4<float,2>::operator--
PUBLIC	??E?$tvec4@M$01@glm@@QAE?AU01@H@Z		; glm::tvec4<float,2>::operator++
PUBLIC	??F?$tvec4@M$01@glm@@QAE?AU01@H@Z		; glm::tvec4<float,2>::operator--
PUBLIC	?length@?$tvec4@N$01@glm@@SAHXZ			; glm::tvec4<double,2>::length
PUBLIC	??A?$tvec4@N$01@glm@@QAEAANH@Z			; glm::tvec4<double,2>::operator[]
PUBLIC	??A?$tvec4@N$01@glm@@QBEABNH@Z			; glm::tvec4<double,2>::operator[]
PUBLIC	??0?$tvec4@N$01@glm@@QAE@XZ			; glm::tvec4<double,2>::tvec4<double,2>
PUBLIC	??0?$tvec4@N$01@glm@@QAE@ABU01@@Z		; glm::tvec4<double,2>::tvec4<double,2>
PUBLIC	??0?$tvec4@N$01@glm@@QAE@W4ctor@1@@Z		; glm::tvec4<double,2>::tvec4<double,2>
PUBLIC	??0?$tvec4@N$01@glm@@QAE@N@Z			; glm::tvec4<double,2>::tvec4<double,2>
PUBLIC	??0?$tvec4@N$01@glm@@QAE@NNNN@Z			; glm::tvec4<double,2>::tvec4<double,2>
PUBLIC	??4?$tvec4@N$01@glm@@QAEAAU01@ABU01@@Z		; glm::tvec4<double,2>::operator=
PUBLIC	??E?$tvec4@N$01@glm@@QAEAAU01@XZ		; glm::tvec4<double,2>::operator++
PUBLIC	??F?$tvec4@N$01@glm@@QAEAAU01@XZ		; glm::tvec4<double,2>::operator--
PUBLIC	??E?$tvec4@N$01@glm@@QAE?AU01@H@Z		; glm::tvec4<double,2>::operator++
PUBLIC	??F?$tvec4@N$01@glm@@QAE?AU01@H@Z		; glm::tvec4<double,2>::operator--
PUBLIC	?length@?$tvec4@E$00@glm@@SAHXZ			; glm::tvec4<unsigned char,1>::length
PUBLIC	??A?$tvec4@E$00@glm@@QAEAAEH@Z			; glm::tvec4<unsigned char,1>::operator[]
PUBLIC	??A?$tvec4@E$00@glm@@QBEABEH@Z			; glm::tvec4<unsigned char,1>::operator[]
PUBLIC	??0?$tvec4@E$00@glm@@QAE@XZ			; glm::tvec4<unsigned char,1>::tvec4<unsigned char,1>
PUBLIC	??0?$tvec4@E$00@glm@@QAE@ABU01@@Z		; glm::tvec4<unsigned char,1>::tvec4<unsigned char,1>
PUBLIC	??0?$tvec4@E$00@glm@@QAE@W4ctor@1@@Z		; glm::tvec4<unsigned char,1>::tvec4<unsigned char,1>
PUBLIC	??0?$tvec4@E$00@glm@@QAE@E@Z			; glm::tvec4<unsigned char,1>::tvec4<unsigned char,1>
PUBLIC	??0?$tvec4@E$00@glm@@QAE@EEEE@Z			; glm::tvec4<unsigned char,1>::tvec4<unsigned char,1>
PUBLIC	??4?$tvec4@E$00@glm@@QAEAAU01@ABU01@@Z		; glm::tvec4<unsigned char,1>::operator=
PUBLIC	??E?$tvec4@E$00@glm@@QAEAAU01@XZ		; glm::tvec4<unsigned char,1>::operator++
PUBLIC	??F?$tvec4@E$00@glm@@QAEAAU01@XZ		; glm::tvec4<unsigned char,1>::operator--
PUBLIC	??E?$tvec4@E$00@glm@@QAE?AU01@H@Z		; glm::tvec4<unsigned char,1>::operator++
PUBLIC	??F?$tvec4@E$00@glm@@QAE?AU01@H@Z		; glm::tvec4<unsigned char,1>::operator--
PUBLIC	?length@?$tvec4@G$00@glm@@SAHXZ			; glm::tvec4<unsigned short,1>::length
PUBLIC	??A?$tvec4@G$00@glm@@QAEAAGH@Z			; glm::tvec4<unsigned short,1>::operator[]
PUBLIC	??A?$tvec4@G$00@glm@@QBEABGH@Z			; glm::tvec4<unsigned short,1>::operator[]
PUBLIC	??0?$tvec4@G$00@glm@@QAE@XZ			; glm::tvec4<unsigned short,1>::tvec4<unsigned short,1>
PUBLIC	??0?$tvec4@G$00@glm@@QAE@ABU01@@Z		; glm::tvec4<unsigned short,1>::tvec4<unsigned short,1>
PUBLIC	??0?$tvec4@G$00@glm@@QAE@W4ctor@1@@Z		; glm::tvec4<unsigned short,1>::tvec4<unsigned short,1>
PUBLIC	??0?$tvec4@G$00@glm@@QAE@G@Z			; glm::tvec4<unsigned short,1>::tvec4<unsigned short,1>
PUBLIC	??0?$tvec4@G$00@glm@@QAE@GGGG@Z			; glm::tvec4<unsigned short,1>::tvec4<unsigned short,1>
PUBLIC	??4?$tvec4@G$00@glm@@QAEAAU01@ABU01@@Z		; glm::tvec4<unsigned short,1>::operator=
PUBLIC	??E?$tvec4@G$00@glm@@QAEAAU01@XZ		; glm::tvec4<unsigned short,1>::operator++
PUBLIC	??F?$tvec4@G$00@glm@@QAEAAU01@XZ		; glm::tvec4<unsigned short,1>::operator--
PUBLIC	??E?$tvec4@G$00@glm@@QAE?AU01@H@Z		; glm::tvec4<unsigned short,1>::operator++
PUBLIC	??F?$tvec4@G$00@glm@@QAE?AU01@H@Z		; glm::tvec4<unsigned short,1>::operator--
PUBLIC	?length@?$tvec4@I$00@glm@@SAHXZ			; glm::tvec4<unsigned int,1>::length
PUBLIC	??A?$tvec4@I$00@glm@@QAEAAIH@Z			; glm::tvec4<unsigned int,1>::operator[]
PUBLIC	??A?$tvec4@I$00@glm@@QBEABIH@Z			; glm::tvec4<unsigned int,1>::operator[]
PUBLIC	??0?$tvec4@I$00@glm@@QAE@XZ			; glm::tvec4<unsigned int,1>::tvec4<unsigned int,1>
PUBLIC	??0?$tvec4@I$00@glm@@QAE@ABU01@@Z		; glm::tvec4<unsigned int,1>::tvec4<unsigned int,1>
PUBLIC	??0?$tvec4@I$00@glm@@QAE@W4ctor@1@@Z		; glm::tvec4<unsigned int,1>::tvec4<unsigned int,1>
PUBLIC	??0?$tvec4@I$00@glm@@QAE@I@Z			; glm::tvec4<unsigned int,1>::tvec4<unsigned int,1>
PUBLIC	??0?$tvec4@I$00@glm@@QAE@IIII@Z			; glm::tvec4<unsigned int,1>::tvec4<unsigned int,1>
PUBLIC	??4?$tvec4@I$00@glm@@QAEAAU01@ABU01@@Z		; glm::tvec4<unsigned int,1>::operator=
PUBLIC	??E?$tvec4@I$00@glm@@QAEAAU01@XZ		; glm::tvec4<unsigned int,1>::operator++
PUBLIC	??F?$tvec4@I$00@glm@@QAEAAU01@XZ		; glm::tvec4<unsigned int,1>::operator--
PUBLIC	??E?$tvec4@I$00@glm@@QAE?AU01@H@Z		; glm::tvec4<unsigned int,1>::operator++
PUBLIC	??F?$tvec4@I$00@glm@@QAE?AU01@H@Z		; glm::tvec4<unsigned int,1>::operator--
PUBLIC	?length@?$tvec4@_K$00@glm@@SAHXZ		; glm::tvec4<unsigned __int64,1>::length
PUBLIC	??A?$tvec4@_K$00@glm@@QAEAA_KH@Z		; glm::tvec4<unsigned __int64,1>::operator[]
PUBLIC	??A?$tvec4@_K$00@glm@@QBEAB_KH@Z		; glm::tvec4<unsigned __int64,1>::operator[]
PUBLIC	??0?$tvec4@_K$00@glm@@QAE@XZ			; glm::tvec4<unsigned __int64,1>::tvec4<unsigned __int64,1>
PUBLIC	??0?$tvec4@_K$00@glm@@QAE@ABU01@@Z		; glm::tvec4<unsigned __int64,1>::tvec4<unsigned __int64,1>
PUBLIC	??0?$tvec4@_K$00@glm@@QAE@W4ctor@1@@Z		; glm::tvec4<unsigned __int64,1>::tvec4<unsigned __int64,1>
PUBLIC	??0?$tvec4@_K$00@glm@@QAE@_K@Z			; glm::tvec4<unsigned __int64,1>::tvec4<unsigned __int64,1>
PUBLIC	??0?$tvec4@_K$00@glm@@QAE@_K000@Z		; glm::tvec4<unsigned __int64,1>::tvec4<unsigned __int64,1>
PUBLIC	??4?$tvec4@_K$00@glm@@QAEAAU01@ABU01@@Z		; glm::tvec4<unsigned __int64,1>::operator=
PUBLIC	??E?$tvec4@_K$00@glm@@QAEAAU01@XZ		; glm::tvec4<unsigned __int64,1>::operator++
PUBLIC	??F?$tvec4@_K$00@glm@@QAEAAU01@XZ		; glm::tvec4<unsigned __int64,1>::operator--
PUBLIC	??E?$tvec4@_K$00@glm@@QAE?AU01@H@Z		; glm::tvec4<unsigned __int64,1>::operator++
PUBLIC	??F?$tvec4@_K$00@glm@@QAE?AU01@H@Z		; glm::tvec4<unsigned __int64,1>::operator--
PUBLIC	?length@?$tvec4@C$00@glm@@SAHXZ			; glm::tvec4<signed char,1>::length
PUBLIC	??A?$tvec4@C$00@glm@@QAEAACH@Z			; glm::tvec4<signed char,1>::operator[]
PUBLIC	??A?$tvec4@C$00@glm@@QBEABCH@Z			; glm::tvec4<signed char,1>::operator[]
PUBLIC	??0?$tvec4@C$00@glm@@QAE@XZ			; glm::tvec4<signed char,1>::tvec4<signed char,1>
PUBLIC	??0?$tvec4@C$00@glm@@QAE@ABU01@@Z		; glm::tvec4<signed char,1>::tvec4<signed char,1>
PUBLIC	??0?$tvec4@C$00@glm@@QAE@W4ctor@1@@Z		; glm::tvec4<signed char,1>::tvec4<signed char,1>
PUBLIC	??0?$tvec4@C$00@glm@@QAE@C@Z			; glm::tvec4<signed char,1>::tvec4<signed char,1>
PUBLIC	??0?$tvec4@C$00@glm@@QAE@CCCC@Z			; glm::tvec4<signed char,1>::tvec4<signed char,1>
PUBLIC	??4?$tvec4@C$00@glm@@QAEAAU01@ABU01@@Z		; glm::tvec4<signed char,1>::operator=
PUBLIC	??E?$tvec4@C$00@glm@@QAEAAU01@XZ		; glm::tvec4<signed char,1>::operator++
PUBLIC	??F?$tvec4@C$00@glm@@QAEAAU01@XZ		; glm::tvec4<signed char,1>::operator--
PUBLIC	??E?$tvec4@C$00@glm@@QAE?AU01@H@Z		; glm::tvec4<signed char,1>::operator++
PUBLIC	??F?$tvec4@C$00@glm@@QAE?AU01@H@Z		; glm::tvec4<signed char,1>::operator--
PUBLIC	?length@?$tvec4@F$00@glm@@SAHXZ			; glm::tvec4<short,1>::length
PUBLIC	??A?$tvec4@F$00@glm@@QAEAAFH@Z			; glm::tvec4<short,1>::operator[]
PUBLIC	??A?$tvec4@F$00@glm@@QBEABFH@Z			; glm::tvec4<short,1>::operator[]
PUBLIC	??0?$tvec4@F$00@glm@@QAE@XZ			; glm::tvec4<short,1>::tvec4<short,1>
PUBLIC	??0?$tvec4@F$00@glm@@QAE@ABU01@@Z		; glm::tvec4<short,1>::tvec4<short,1>
PUBLIC	??0?$tvec4@F$00@glm@@QAE@W4ctor@1@@Z		; glm::tvec4<short,1>::tvec4<short,1>
PUBLIC	??0?$tvec4@F$00@glm@@QAE@F@Z			; glm::tvec4<short,1>::tvec4<short,1>
PUBLIC	??0?$tvec4@F$00@glm@@QAE@FFFF@Z			; glm::tvec4<short,1>::tvec4<short,1>
PUBLIC	??4?$tvec4@F$00@glm@@QAEAAU01@ABU01@@Z		; glm::tvec4<short,1>::operator=
PUBLIC	??E?$tvec4@F$00@glm@@QAEAAU01@XZ		; glm::tvec4<short,1>::operator++
PUBLIC	??F?$tvec4@F$00@glm@@QAEAAU01@XZ		; glm::tvec4<short,1>::operator--
PUBLIC	??E?$tvec4@F$00@glm@@QAE?AU01@H@Z		; glm::tvec4<short,1>::operator++
PUBLIC	??F?$tvec4@F$00@glm@@QAE?AU01@H@Z		; glm::tvec4<short,1>::operator--
PUBLIC	?length@?$tvec4@H$00@glm@@SAHXZ			; glm::tvec4<int,1>::length
PUBLIC	??A?$tvec4@H$00@glm@@QAEAAHH@Z			; glm::tvec4<int,1>::operator[]
PUBLIC	??A?$tvec4@H$00@glm@@QBEABHH@Z			; glm::tvec4<int,1>::operator[]
PUBLIC	??0?$tvec4@H$00@glm@@QAE@XZ			; glm::tvec4<int,1>::tvec4<int,1>
PUBLIC	??0?$tvec4@H$00@glm@@QAE@ABU01@@Z		; glm::tvec4<int,1>::tvec4<int,1>
PUBLIC	??0?$tvec4@H$00@glm@@QAE@W4ctor@1@@Z		; glm::tvec4<int,1>::tvec4<int,1>
PUBLIC	??0?$tvec4@H$00@glm@@QAE@H@Z			; glm::tvec4<int,1>::tvec4<int,1>
PUBLIC	??0?$tvec4@H$00@glm@@QAE@HHHH@Z			; glm::tvec4<int,1>::tvec4<int,1>
PUBLIC	??4?$tvec4@H$00@glm@@QAEAAU01@ABU01@@Z		; glm::tvec4<int,1>::operator=
PUBLIC	??E?$tvec4@H$00@glm@@QAEAAU01@XZ		; glm::tvec4<int,1>::operator++
PUBLIC	??F?$tvec4@H$00@glm@@QAEAAU01@XZ		; glm::tvec4<int,1>::operator--
PUBLIC	??E?$tvec4@H$00@glm@@QAE?AU01@H@Z		; glm::tvec4<int,1>::operator++
PUBLIC	??F?$tvec4@H$00@glm@@QAE?AU01@H@Z		; glm::tvec4<int,1>::operator--
PUBLIC	?length@?$tvec4@_J$00@glm@@SAHXZ		; glm::tvec4<__int64,1>::length
PUBLIC	??A?$tvec4@_J$00@glm@@QAEAA_JH@Z		; glm::tvec4<__int64,1>::operator[]
PUBLIC	??A?$tvec4@_J$00@glm@@QBEAB_JH@Z		; glm::tvec4<__int64,1>::operator[]
PUBLIC	??0?$tvec4@_J$00@glm@@QAE@XZ			; glm::tvec4<__int64,1>::tvec4<__int64,1>
PUBLIC	??0?$tvec4@_J$00@glm@@QAE@ABU01@@Z		; glm::tvec4<__int64,1>::tvec4<__int64,1>
PUBLIC	??0?$tvec4@_J$00@glm@@QAE@W4ctor@1@@Z		; glm::tvec4<__int64,1>::tvec4<__int64,1>
PUBLIC	??0?$tvec4@_J$00@glm@@QAE@_J@Z			; glm::tvec4<__int64,1>::tvec4<__int64,1>
PUBLIC	??0?$tvec4@_J$00@glm@@QAE@_J000@Z		; glm::tvec4<__int64,1>::tvec4<__int64,1>
PUBLIC	??4?$tvec4@_J$00@glm@@QAEAAU01@ABU01@@Z		; glm::tvec4<__int64,1>::operator=
PUBLIC	??E?$tvec4@_J$00@glm@@QAEAAU01@XZ		; glm::tvec4<__int64,1>::operator++
PUBLIC	??F?$tvec4@_J$00@glm@@QAEAAU01@XZ		; glm::tvec4<__int64,1>::operator--
PUBLIC	??E?$tvec4@_J$00@glm@@QAE?AU01@H@Z		; glm::tvec4<__int64,1>::operator++
PUBLIC	??F?$tvec4@_J$00@glm@@QAE?AU01@H@Z		; glm::tvec4<__int64,1>::operator--
PUBLIC	?length@?$tvec4@M$00@glm@@SAHXZ			; glm::tvec4<float,1>::length
PUBLIC	??A?$tvec4@M$00@glm@@QAEAAMH@Z			; glm::tvec4<float,1>::operator[]
PUBLIC	??A?$tvec4@M$00@glm@@QBEABMH@Z			; glm::tvec4<float,1>::operator[]
PUBLIC	??0?$tvec4@M$00@glm@@QAE@XZ			; glm::tvec4<float,1>::tvec4<float,1>
PUBLIC	??0?$tvec4@M$00@glm@@QAE@ABU01@@Z		; glm::tvec4<float,1>::tvec4<float,1>
PUBLIC	??0?$tvec4@M$00@glm@@QAE@W4ctor@1@@Z		; glm::tvec4<float,1>::tvec4<float,1>
PUBLIC	??0?$tvec4@M$00@glm@@QAE@M@Z			; glm::tvec4<float,1>::tvec4<float,1>
PUBLIC	??0?$tvec4@M$00@glm@@QAE@MMMM@Z			; glm::tvec4<float,1>::tvec4<float,1>
PUBLIC	??4?$tvec4@M$00@glm@@QAEAAU01@ABU01@@Z		; glm::tvec4<float,1>::operator=
PUBLIC	??E?$tvec4@M$00@glm@@QAEAAU01@XZ		; glm::tvec4<float,1>::operator++
PUBLIC	??F?$tvec4@M$00@glm@@QAEAAU01@XZ		; glm::tvec4<float,1>::operator--
PUBLIC	??E?$tvec4@M$00@glm@@QAE?AU01@H@Z		; glm::tvec4<float,1>::operator++
PUBLIC	??F?$tvec4@M$00@glm@@QAE?AU01@H@Z		; glm::tvec4<float,1>::operator--
PUBLIC	?length@?$tvec4@N$00@glm@@SAHXZ			; glm::tvec4<double,1>::length
PUBLIC	??A?$tvec4@N$00@glm@@QAEAANH@Z			; glm::tvec4<double,1>::operator[]
PUBLIC	??A?$tvec4@N$00@glm@@QBEABNH@Z			; glm::tvec4<double,1>::operator[]
PUBLIC	??0?$tvec4@N$00@glm@@QAE@XZ			; glm::tvec4<double,1>::tvec4<double,1>
PUBLIC	??0?$tvec4@N$00@glm@@QAE@ABU01@@Z		; glm::tvec4<double,1>::tvec4<double,1>
PUBLIC	??0?$tvec4@N$00@glm@@QAE@W4ctor@1@@Z		; glm::tvec4<double,1>::tvec4<double,1>
PUBLIC	??0?$tvec4@N$00@glm@@QAE@N@Z			; glm::tvec4<double,1>::tvec4<double,1>
PUBLIC	??0?$tvec4@N$00@glm@@QAE@NNNN@Z			; glm::tvec4<double,1>::tvec4<double,1>
PUBLIC	??4?$tvec4@N$00@glm@@QAEAAU01@ABU01@@Z		; glm::tvec4<double,1>::operator=
PUBLIC	??E?$tvec4@N$00@glm@@QAEAAU01@XZ		; glm::tvec4<double,1>::operator++
PUBLIC	??F?$tvec4@N$00@glm@@QAEAAU01@XZ		; glm::tvec4<double,1>::operator--
PUBLIC	??E?$tvec4@N$00@glm@@QAE?AU01@H@Z		; glm::tvec4<double,1>::operator++
PUBLIC	??F?$tvec4@N$00@glm@@QAE?AU01@H@Z		; glm::tvec4<double,1>::operator--
PUBLIC	?length@?$tvec4@G$0A@@glm@@SAHXZ		; glm::tvec4<unsigned short,0>::length
PUBLIC	??A?$tvec4@G$0A@@glm@@QAEAAGH@Z			; glm::tvec4<unsigned short,0>::operator[]
PUBLIC	??A?$tvec4@G$0A@@glm@@QBEABGH@Z			; glm::tvec4<unsigned short,0>::operator[]
PUBLIC	??0?$tvec4@G$0A@@glm@@QAE@XZ			; glm::tvec4<unsigned short,0>::tvec4<unsigned short,0>
PUBLIC	??0?$tvec4@G$0A@@glm@@QAE@ABU01@@Z		; glm::tvec4<unsigned short,0>::tvec4<unsigned short,0>
PUBLIC	??0?$tvec4@G$0A@@glm@@QAE@W4ctor@1@@Z		; glm::tvec4<unsigned short,0>::tvec4<unsigned short,0>
PUBLIC	??0?$tvec4@G$0A@@glm@@QAE@G@Z			; glm::tvec4<unsigned short,0>::tvec4<unsigned short,0>
PUBLIC	??0?$tvec4@G$0A@@glm@@QAE@GGGG@Z		; glm::tvec4<unsigned short,0>::tvec4<unsigned short,0>
PUBLIC	??4?$tvec4@G$0A@@glm@@QAEAAU01@ABU01@@Z		; glm::tvec4<unsigned short,0>::operator=
PUBLIC	??E?$tvec4@G$0A@@glm@@QAEAAU01@XZ		; glm::tvec4<unsigned short,0>::operator++
PUBLIC	??F?$tvec4@G$0A@@glm@@QAEAAU01@XZ		; glm::tvec4<unsigned short,0>::operator--
PUBLIC	??E?$tvec4@G$0A@@glm@@QAE?AU01@H@Z		; glm::tvec4<unsigned short,0>::operator++
PUBLIC	??F?$tvec4@G$0A@@glm@@QAE?AU01@H@Z		; glm::tvec4<unsigned short,0>::operator--
PUBLIC	?length@?$tvec4@I$0A@@glm@@SAHXZ		; glm::tvec4<unsigned int,0>::length
PUBLIC	??A?$tvec4@I$0A@@glm@@QAEAAIH@Z			; glm::tvec4<unsigned int,0>::operator[]
PUBLIC	??A?$tvec4@I$0A@@glm@@QBEABIH@Z			; glm::tvec4<unsigned int,0>::operator[]
PUBLIC	??0?$tvec4@I$0A@@glm@@QAE@XZ			; glm::tvec4<unsigned int,0>::tvec4<unsigned int,0>
PUBLIC	??0?$tvec4@I$0A@@glm@@QAE@ABU01@@Z		; glm::tvec4<unsigned int,0>::tvec4<unsigned int,0>
PUBLIC	??0?$tvec4@I$0A@@glm@@QAE@W4ctor@1@@Z		; glm::tvec4<unsigned int,0>::tvec4<unsigned int,0>
PUBLIC	??0?$tvec4@I$0A@@glm@@QAE@I@Z			; glm::tvec4<unsigned int,0>::tvec4<unsigned int,0>
PUBLIC	??0?$tvec4@I$0A@@glm@@QAE@IIII@Z		; glm::tvec4<unsigned int,0>::tvec4<unsigned int,0>
PUBLIC	??4?$tvec4@I$0A@@glm@@QAEAAU01@ABU01@@Z		; glm::tvec4<unsigned int,0>::operator=
PUBLIC	??E?$tvec4@I$0A@@glm@@QAEAAU01@XZ		; glm::tvec4<unsigned int,0>::operator++
PUBLIC	??F?$tvec4@I$0A@@glm@@QAEAAU01@XZ		; glm::tvec4<unsigned int,0>::operator--
PUBLIC	??E?$tvec4@I$0A@@glm@@QAE?AU01@H@Z		; glm::tvec4<unsigned int,0>::operator++
PUBLIC	??F?$tvec4@I$0A@@glm@@QAE?AU01@H@Z		; glm::tvec4<unsigned int,0>::operator--
PUBLIC	?length@?$tvec4@_K$0A@@glm@@SAHXZ		; glm::tvec4<unsigned __int64,0>::length
PUBLIC	??A?$tvec4@_K$0A@@glm@@QAEAA_KH@Z		; glm::tvec4<unsigned __int64,0>::operator[]
PUBLIC	??A?$tvec4@_K$0A@@glm@@QBEAB_KH@Z		; glm::tvec4<unsigned __int64,0>::operator[]
PUBLIC	??0?$tvec4@_K$0A@@glm@@QAE@XZ			; glm::tvec4<unsigned __int64,0>::tvec4<unsigned __int64,0>
PUBLIC	??0?$tvec4@_K$0A@@glm@@QAE@ABU01@@Z		; glm::tvec4<unsigned __int64,0>::tvec4<unsigned __int64,0>
PUBLIC	??0?$tvec4@_K$0A@@glm@@QAE@W4ctor@1@@Z		; glm::tvec4<unsigned __int64,0>::tvec4<unsigned __int64,0>
PUBLIC	??0?$tvec4@_K$0A@@glm@@QAE@_K@Z			; glm::tvec4<unsigned __int64,0>::tvec4<unsigned __int64,0>
PUBLIC	??0?$tvec4@_K$0A@@glm@@QAE@_K000@Z		; glm::tvec4<unsigned __int64,0>::tvec4<unsigned __int64,0>
PUBLIC	??4?$tvec4@_K$0A@@glm@@QAEAAU01@ABU01@@Z	; glm::tvec4<unsigned __int64,0>::operator=
PUBLIC	??E?$tvec4@_K$0A@@glm@@QAEAAU01@XZ		; glm::tvec4<unsigned __int64,0>::operator++
PUBLIC	??F?$tvec4@_K$0A@@glm@@QAEAAU01@XZ		; glm::tvec4<unsigned __int64,0>::operator--
PUBLIC	??E?$tvec4@_K$0A@@glm@@QAE?AU01@H@Z		; glm::tvec4<unsigned __int64,0>::operator++
PUBLIC	??F?$tvec4@_K$0A@@glm@@QAE?AU01@H@Z		; glm::tvec4<unsigned __int64,0>::operator--
PUBLIC	?length@?$tvec4@F$0A@@glm@@SAHXZ		; glm::tvec4<short,0>::length
PUBLIC	??A?$tvec4@F$0A@@glm@@QAEAAFH@Z			; glm::tvec4<short,0>::operator[]
PUBLIC	??A?$tvec4@F$0A@@glm@@QBEABFH@Z			; glm::tvec4<short,0>::operator[]
PUBLIC	??0?$tvec4@F$0A@@glm@@QAE@XZ			; glm::tvec4<short,0>::tvec4<short,0>
PUBLIC	??0?$tvec4@F$0A@@glm@@QAE@ABU01@@Z		; glm::tvec4<short,0>::tvec4<short,0>
PUBLIC	??0?$tvec4@F$0A@@glm@@QAE@W4ctor@1@@Z		; glm::tvec4<short,0>::tvec4<short,0>
PUBLIC	??0?$tvec4@F$0A@@glm@@QAE@F@Z			; glm::tvec4<short,0>::tvec4<short,0>
PUBLIC	??0?$tvec4@F$0A@@glm@@QAE@FFFF@Z		; glm::tvec4<short,0>::tvec4<short,0>
PUBLIC	??4?$tvec4@F$0A@@glm@@QAEAAU01@ABU01@@Z		; glm::tvec4<short,0>::operator=
PUBLIC	??E?$tvec4@F$0A@@glm@@QAEAAU01@XZ		; glm::tvec4<short,0>::operator++
PUBLIC	??F?$tvec4@F$0A@@glm@@QAEAAU01@XZ		; glm::tvec4<short,0>::operator--
PUBLIC	??E?$tvec4@F$0A@@glm@@QAE?AU01@H@Z		; glm::tvec4<short,0>::operator++
PUBLIC	??F?$tvec4@F$0A@@glm@@QAE?AU01@H@Z		; glm::tvec4<short,0>::operator--
PUBLIC	?length@?$tvec4@H$0A@@glm@@SAHXZ		; glm::tvec4<int,0>::length
PUBLIC	??A?$tvec4@H$0A@@glm@@QAEAAHH@Z			; glm::tvec4<int,0>::operator[]
PUBLIC	??A?$tvec4@H$0A@@glm@@QBEABHH@Z			; glm::tvec4<int,0>::operator[]
PUBLIC	??0?$tvec4@H$0A@@glm@@QAE@XZ			; glm::tvec4<int,0>::tvec4<int,0>
PUBLIC	??0?$tvec4@H$0A@@glm@@QAE@ABU01@@Z		; glm::tvec4<int,0>::tvec4<int,0>
PUBLIC	??0?$tvec4@H$0A@@glm@@QAE@W4ctor@1@@Z		; glm::tvec4<int,0>::tvec4<int,0>
PUBLIC	??0?$tvec4@H$0A@@glm@@QAE@H@Z			; glm::tvec4<int,0>::tvec4<int,0>
PUBLIC	??0?$tvec4@H$0A@@glm@@QAE@HHHH@Z		; glm::tvec4<int,0>::tvec4<int,0>
PUBLIC	??4?$tvec4@H$0A@@glm@@QAEAAU01@ABU01@@Z		; glm::tvec4<int,0>::operator=
PUBLIC	??E?$tvec4@H$0A@@glm@@QAEAAU01@XZ		; glm::tvec4<int,0>::operator++
PUBLIC	??F?$tvec4@H$0A@@glm@@QAEAAU01@XZ		; glm::tvec4<int,0>::operator--
PUBLIC	??E?$tvec4@H$0A@@glm@@QAE?AU01@H@Z		; glm::tvec4<int,0>::operator++
PUBLIC	??F?$tvec4@H$0A@@glm@@QAE?AU01@H@Z		; glm::tvec4<int,0>::operator--
PUBLIC	?length@?$tvec4@_J$0A@@glm@@SAHXZ		; glm::tvec4<__int64,0>::length
PUBLIC	??A?$tvec4@_J$0A@@glm@@QAEAA_JH@Z		; glm::tvec4<__int64,0>::operator[]
PUBLIC	??A?$tvec4@_J$0A@@glm@@QBEAB_JH@Z		; glm::tvec4<__int64,0>::operator[]
PUBLIC	??0?$tvec4@_J$0A@@glm@@QAE@XZ			; glm::tvec4<__int64,0>::tvec4<__int64,0>
PUBLIC	??0?$tvec4@_J$0A@@glm@@QAE@ABU01@@Z		; glm::tvec4<__int64,0>::tvec4<__int64,0>
PUBLIC	??0?$tvec4@_J$0A@@glm@@QAE@W4ctor@1@@Z		; glm::tvec4<__int64,0>::tvec4<__int64,0>
PUBLIC	??0?$tvec4@_J$0A@@glm@@QAE@_J@Z			; glm::tvec4<__int64,0>::tvec4<__int64,0>
PUBLIC	??0?$tvec4@_J$0A@@glm@@QAE@_J000@Z		; glm::tvec4<__int64,0>::tvec4<__int64,0>
PUBLIC	??4?$tvec4@_J$0A@@glm@@QAEAAU01@ABU01@@Z	; glm::tvec4<__int64,0>::operator=
PUBLIC	??E?$tvec4@_J$0A@@glm@@QAEAAU01@XZ		; glm::tvec4<__int64,0>::operator++
PUBLIC	??F?$tvec4@_J$0A@@glm@@QAEAAU01@XZ		; glm::tvec4<__int64,0>::operator--
PUBLIC	??E?$tvec4@_J$0A@@glm@@QAE?AU01@H@Z		; glm::tvec4<__int64,0>::operator++
PUBLIC	??F?$tvec4@_J$0A@@glm@@QAE?AU01@H@Z		; glm::tvec4<__int64,0>::operator--
PUBLIC	?length@?$tvec4@N$0A@@glm@@SAHXZ		; glm::tvec4<double,0>::length
PUBLIC	??A?$tvec4@N$0A@@glm@@QAEAANH@Z			; glm::tvec4<double,0>::operator[]
PUBLIC	??A?$tvec4@N$0A@@glm@@QBEABNH@Z			; glm::tvec4<double,0>::operator[]
PUBLIC	??0?$tvec4@N$0A@@glm@@QAE@XZ			; glm::tvec4<double,0>::tvec4<double,0>
PUBLIC	??0?$tvec4@N$0A@@glm@@QAE@ABU01@@Z		; glm::tvec4<double,0>::tvec4<double,0>
PUBLIC	??0?$tvec4@N$0A@@glm@@QAE@W4ctor@1@@Z		; glm::tvec4<double,0>::tvec4<double,0>
PUBLIC	??0?$tvec4@N$0A@@glm@@QAE@N@Z			; glm::tvec4<double,0>::tvec4<double,0>
PUBLIC	??0?$tvec4@N$0A@@glm@@QAE@NNNN@Z		; glm::tvec4<double,0>::tvec4<double,0>
PUBLIC	??4?$tvec4@N$0A@@glm@@QAEAAU01@ABU01@@Z		; glm::tvec4<double,0>::operator=
PUBLIC	??E?$tvec4@N$0A@@glm@@QAEAAU01@XZ		; glm::tvec4<double,0>::operator++
PUBLIC	??F?$tvec4@N$0A@@glm@@QAEAAU01@XZ		; glm::tvec4<double,0>::operator--
PUBLIC	??E?$tvec4@N$0A@@glm@@QAE?AU01@H@Z		; glm::tvec4<double,0>::operator++
PUBLIC	??F?$tvec4@N$0A@@glm@@QAE?AU01@H@Z		; glm::tvec4<double,0>::operator--
PUBLIC	??0?$tmat2x2@M$01@glm@@QAE@XZ			; glm::tmat2x2<float,2>::tmat2x2<float,2>
PUBLIC	??0?$tmat2x2@M$01@glm@@QAE@ABU01@@Z		; glm::tmat2x2<float,2>::tmat2x2<float,2>
PUBLIC	??0?$tmat2x2@M$01@glm@@QAE@W4ctor@1@@Z		; glm::tmat2x2<float,2>::tmat2x2<float,2>
PUBLIC	??0?$tmat2x2@M$01@glm@@QAE@M@Z			; glm::tmat2x2<float,2>::tmat2x2<float,2>
PUBLIC	??0?$tmat2x2@M$01@glm@@QAE@ABM000@Z		; glm::tmat2x2<float,2>::tmat2x2<float,2>
PUBLIC	??0?$tmat2x2@M$01@glm@@QAE@ABU?$tvec2@M$01@1@0@Z ; glm::tmat2x2<float,2>::tmat2x2<float,2>
PUBLIC	??0?$tmat2x2@M$01@glm@@QAE@ABU?$tmat3x3@M$01@1@@Z ; glm::tmat2x2<float,2>::tmat2x2<float,2>
PUBLIC	??0?$tmat2x2@M$01@glm@@QAE@ABU?$tmat4x4@M$01@1@@Z ; glm::tmat2x2<float,2>::tmat2x2<float,2>
PUBLIC	??0?$tmat2x2@M$01@glm@@QAE@ABU?$tmat2x3@M$01@1@@Z ; glm::tmat2x2<float,2>::tmat2x2<float,2>
PUBLIC	??0?$tmat2x2@M$01@glm@@QAE@ABU?$tmat3x2@M$01@1@@Z ; glm::tmat2x2<float,2>::tmat2x2<float,2>
PUBLIC	??0?$tmat2x2@M$01@glm@@QAE@ABU?$tmat2x4@M$01@1@@Z ; glm::tmat2x2<float,2>::tmat2x2<float,2>
PUBLIC	??0?$tmat2x2@M$01@glm@@QAE@ABU?$tmat4x2@M$01@1@@Z ; glm::tmat2x2<float,2>::tmat2x2<float,2>
PUBLIC	??0?$tmat2x2@M$01@glm@@QAE@ABU?$tmat3x4@M$01@1@@Z ; glm::tmat2x2<float,2>::tmat2x2<float,2>
PUBLIC	??0?$tmat2x2@M$01@glm@@QAE@ABU?$tmat4x3@M$01@1@@Z ; glm::tmat2x2<float,2>::tmat2x2<float,2>
PUBLIC	?length@?$tmat2x2@M$01@glm@@SAHXZ		; glm::tmat2x2<float,2>::length
PUBLIC	??A?$tmat2x2@M$01@glm@@QAEAAU?$tvec2@M$01@1@H@Z	; glm::tmat2x2<float,2>::operator[]
PUBLIC	??A?$tmat2x2@M$01@glm@@QBEABU?$tvec2@M$01@1@H@Z	; glm::tmat2x2<float,2>::operator[]
PUBLIC	??4?$tmat2x2@M$01@glm@@QAEAAU01@ABU01@@Z	; glm::tmat2x2<float,2>::operator=
PUBLIC	??E?$tmat2x2@M$01@glm@@QAEAAU01@XZ		; glm::tmat2x2<float,2>::operator++
PUBLIC	??F?$tmat2x2@M$01@glm@@QAEAAU01@XZ		; glm::tmat2x2<float,2>::operator--
PUBLIC	??E?$tmat2x2@M$01@glm@@QAE?AU01@H@Z		; glm::tmat2x2<float,2>::operator++
PUBLIC	??F?$tmat2x2@M$01@glm@@QAE?AU01@H@Z		; glm::tmat2x2<float,2>::operator--
PUBLIC	??0?$tmat2x2@N$01@glm@@QAE@XZ			; glm::tmat2x2<double,2>::tmat2x2<double,2>
PUBLIC	??0?$tmat2x2@N$01@glm@@QAE@ABU01@@Z		; glm::tmat2x2<double,2>::tmat2x2<double,2>
PUBLIC	??0?$tmat2x2@N$01@glm@@QAE@W4ctor@1@@Z		; glm::tmat2x2<double,2>::tmat2x2<double,2>
PUBLIC	??0?$tmat2x2@N$01@glm@@QAE@N@Z			; glm::tmat2x2<double,2>::tmat2x2<double,2>
PUBLIC	??0?$tmat2x2@N$01@glm@@QAE@ABN000@Z		; glm::tmat2x2<double,2>::tmat2x2<double,2>
PUBLIC	??0?$tmat2x2@N$01@glm@@QAE@ABU?$tvec2@N$01@1@0@Z ; glm::tmat2x2<double,2>::tmat2x2<double,2>
PUBLIC	??0?$tmat2x2@N$01@glm@@QAE@ABU?$tmat3x3@N$01@1@@Z ; glm::tmat2x2<double,2>::tmat2x2<double,2>
PUBLIC	??0?$tmat2x2@N$01@glm@@QAE@ABU?$tmat4x4@N$01@1@@Z ; glm::tmat2x2<double,2>::tmat2x2<double,2>
PUBLIC	??0?$tmat2x2@N$01@glm@@QAE@ABU?$tmat2x3@N$01@1@@Z ; glm::tmat2x2<double,2>::tmat2x2<double,2>
PUBLIC	??0?$tmat2x2@N$01@glm@@QAE@ABU?$tmat3x2@N$01@1@@Z ; glm::tmat2x2<double,2>::tmat2x2<double,2>
PUBLIC	??0?$tmat2x2@N$01@glm@@QAE@ABU?$tmat2x4@N$01@1@@Z ; glm::tmat2x2<double,2>::tmat2x2<double,2>
PUBLIC	??0?$tmat2x2@N$01@glm@@QAE@ABU?$tmat4x2@N$01@1@@Z ; glm::tmat2x2<double,2>::tmat2x2<double,2>
PUBLIC	??0?$tmat2x2@N$01@glm@@QAE@ABU?$tmat3x4@N$01@1@@Z ; glm::tmat2x2<double,2>::tmat2x2<double,2>
PUBLIC	??0?$tmat2x2@N$01@glm@@QAE@ABU?$tmat4x3@N$01@1@@Z ; glm::tmat2x2<double,2>::tmat2x2<double,2>
PUBLIC	?length@?$tmat2x2@N$01@glm@@SAHXZ		; glm::tmat2x2<double,2>::length
PUBLIC	??A?$tmat2x2@N$01@glm@@QAEAAU?$tvec2@N$01@1@H@Z	; glm::tmat2x2<double,2>::operator[]
PUBLIC	??A?$tmat2x2@N$01@glm@@QBEABU?$tvec2@N$01@1@H@Z	; glm::tmat2x2<double,2>::operator[]
PUBLIC	??4?$tmat2x2@N$01@glm@@QAEAAU01@ABU01@@Z	; glm::tmat2x2<double,2>::operator=
PUBLIC	??E?$tmat2x2@N$01@glm@@QAEAAU01@XZ		; glm::tmat2x2<double,2>::operator++
PUBLIC	??F?$tmat2x2@N$01@glm@@QAEAAU01@XZ		; glm::tmat2x2<double,2>::operator--
PUBLIC	??E?$tmat2x2@N$01@glm@@QAE?AU01@H@Z		; glm::tmat2x2<double,2>::operator++
PUBLIC	??F?$tmat2x2@N$01@glm@@QAE?AU01@H@Z		; glm::tmat2x2<double,2>::operator--
PUBLIC	??0?$tmat2x2@M$00@glm@@QAE@XZ			; glm::tmat2x2<float,1>::tmat2x2<float,1>
PUBLIC	??0?$tmat2x2@M$00@glm@@QAE@ABU01@@Z		; glm::tmat2x2<float,1>::tmat2x2<float,1>
PUBLIC	??0?$tmat2x2@M$00@glm@@QAE@W4ctor@1@@Z		; glm::tmat2x2<float,1>::tmat2x2<float,1>
PUBLIC	??0?$tmat2x2@M$00@glm@@QAE@M@Z			; glm::tmat2x2<float,1>::tmat2x2<float,1>
PUBLIC	??0?$tmat2x2@M$00@glm@@QAE@ABM000@Z		; glm::tmat2x2<float,1>::tmat2x2<float,1>
PUBLIC	??0?$tmat2x2@M$00@glm@@QAE@ABU?$tvec2@M$00@1@0@Z ; glm::tmat2x2<float,1>::tmat2x2<float,1>
PUBLIC	??0?$tmat2x2@M$00@glm@@QAE@ABU?$tmat3x3@M$00@1@@Z ; glm::tmat2x2<float,1>::tmat2x2<float,1>
PUBLIC	??0?$tmat2x2@M$00@glm@@QAE@ABU?$tmat4x4@M$00@1@@Z ; glm::tmat2x2<float,1>::tmat2x2<float,1>
PUBLIC	??0?$tmat2x2@M$00@glm@@QAE@ABU?$tmat2x3@M$00@1@@Z ; glm::tmat2x2<float,1>::tmat2x2<float,1>
PUBLIC	??0?$tmat2x2@M$00@glm@@QAE@ABU?$tmat3x2@M$00@1@@Z ; glm::tmat2x2<float,1>::tmat2x2<float,1>
PUBLIC	??0?$tmat2x2@M$00@glm@@QAE@ABU?$tmat2x4@M$00@1@@Z ; glm::tmat2x2<float,1>::tmat2x2<float,1>
PUBLIC	??0?$tmat2x2@M$00@glm@@QAE@ABU?$tmat4x2@M$00@1@@Z ; glm::tmat2x2<float,1>::tmat2x2<float,1>
PUBLIC	??0?$tmat2x2@M$00@glm@@QAE@ABU?$tmat3x4@M$00@1@@Z ; glm::tmat2x2<float,1>::tmat2x2<float,1>
PUBLIC	??0?$tmat2x2@M$00@glm@@QAE@ABU?$tmat4x3@M$00@1@@Z ; glm::tmat2x2<float,1>::tmat2x2<float,1>
PUBLIC	?length@?$tmat2x2@M$00@glm@@SAHXZ		; glm::tmat2x2<float,1>::length
PUBLIC	??A?$tmat2x2@M$00@glm@@QAEAAU?$tvec2@M$00@1@H@Z	; glm::tmat2x2<float,1>::operator[]
PUBLIC	??A?$tmat2x2@M$00@glm@@QBEABU?$tvec2@M$00@1@H@Z	; glm::tmat2x2<float,1>::operator[]
PUBLIC	??4?$tmat2x2@M$00@glm@@QAEAAU01@ABU01@@Z	; glm::tmat2x2<float,1>::operator=
PUBLIC	??E?$tmat2x2@M$00@glm@@QAEAAU01@XZ		; glm::tmat2x2<float,1>::operator++
PUBLIC	??F?$tmat2x2@M$00@glm@@QAEAAU01@XZ		; glm::tmat2x2<float,1>::operator--
PUBLIC	??E?$tmat2x2@M$00@glm@@QAE?AU01@H@Z		; glm::tmat2x2<float,1>::operator++
PUBLIC	??F?$tmat2x2@M$00@glm@@QAE?AU01@H@Z		; glm::tmat2x2<float,1>::operator--
PUBLIC	??0?$tmat2x2@N$00@glm@@QAE@XZ			; glm::tmat2x2<double,1>::tmat2x2<double,1>
PUBLIC	??0?$tmat2x2@N$00@glm@@QAE@ABU01@@Z		; glm::tmat2x2<double,1>::tmat2x2<double,1>
PUBLIC	??0?$tmat2x2@N$00@glm@@QAE@W4ctor@1@@Z		; glm::tmat2x2<double,1>::tmat2x2<double,1>
PUBLIC	??0?$tmat2x2@N$00@glm@@QAE@N@Z			; glm::tmat2x2<double,1>::tmat2x2<double,1>
PUBLIC	??0?$tmat2x2@N$00@glm@@QAE@ABN000@Z		; glm::tmat2x2<double,1>::tmat2x2<double,1>
PUBLIC	??0?$tmat2x2@N$00@glm@@QAE@ABU?$tvec2@N$00@1@0@Z ; glm::tmat2x2<double,1>::tmat2x2<double,1>
PUBLIC	??0?$tmat2x2@N$00@glm@@QAE@ABU?$tmat3x3@N$00@1@@Z ; glm::tmat2x2<double,1>::tmat2x2<double,1>
PUBLIC	??0?$tmat2x2@N$00@glm@@QAE@ABU?$tmat4x4@N$00@1@@Z ; glm::tmat2x2<double,1>::tmat2x2<double,1>
PUBLIC	??0?$tmat2x2@N$00@glm@@QAE@ABU?$tmat2x3@N$00@1@@Z ; glm::tmat2x2<double,1>::tmat2x2<double,1>
PUBLIC	??0?$tmat2x2@N$00@glm@@QAE@ABU?$tmat3x2@N$00@1@@Z ; glm::tmat2x2<double,1>::tmat2x2<double,1>
PUBLIC	??0?$tmat2x2@N$00@glm@@QAE@ABU?$tmat2x4@N$00@1@@Z ; glm::tmat2x2<double,1>::tmat2x2<double,1>
PUBLIC	??0?$tmat2x2@N$00@glm@@QAE@ABU?$tmat4x2@N$00@1@@Z ; glm::tmat2x2<double,1>::tmat2x2<double,1>
PUBLIC	??0?$tmat2x2@N$00@glm@@QAE@ABU?$tmat3x4@N$00@1@@Z ; glm::tmat2x2<double,1>::tmat2x2<double,1>
PUBLIC	??0?$tmat2x2@N$00@glm@@QAE@ABU?$tmat4x3@N$00@1@@Z ; glm::tmat2x2<double,1>::tmat2x2<double,1>
PUBLIC	?length@?$tmat2x2@N$00@glm@@SAHXZ		; glm::tmat2x2<double,1>::length
PUBLIC	??A?$tmat2x2@N$00@glm@@QAEAAU?$tvec2@N$00@1@H@Z	; glm::tmat2x2<double,1>::operator[]
PUBLIC	??A?$tmat2x2@N$00@glm@@QBEABU?$tvec2@N$00@1@H@Z	; glm::tmat2x2<double,1>::operator[]
PUBLIC	??4?$tmat2x2@N$00@glm@@QAEAAU01@ABU01@@Z	; glm::tmat2x2<double,1>::operator=
PUBLIC	??E?$tmat2x2@N$00@glm@@QAEAAU01@XZ		; glm::tmat2x2<double,1>::operator++
PUBLIC	??F?$tmat2x2@N$00@glm@@QAEAAU01@XZ		; glm::tmat2x2<double,1>::operator--
PUBLIC	??E?$tmat2x2@N$00@glm@@QAE?AU01@H@Z		; glm::tmat2x2<double,1>::operator++
PUBLIC	??F?$tmat2x2@N$00@glm@@QAE?AU01@H@Z		; glm::tmat2x2<double,1>::operator--
PUBLIC	??0?$tmat2x2@M$0A@@glm@@QAE@XZ			; glm::tmat2x2<float,0>::tmat2x2<float,0>
PUBLIC	??0?$tmat2x2@M$0A@@glm@@QAE@ABU01@@Z		; glm::tmat2x2<float,0>::tmat2x2<float,0>
PUBLIC	??0?$tmat2x2@M$0A@@glm@@QAE@W4ctor@1@@Z		; glm::tmat2x2<float,0>::tmat2x2<float,0>
PUBLIC	??0?$tmat2x2@M$0A@@glm@@QAE@M@Z			; glm::tmat2x2<float,0>::tmat2x2<float,0>
PUBLIC	??0?$tmat2x2@M$0A@@glm@@QAE@ABM000@Z		; glm::tmat2x2<float,0>::tmat2x2<float,0>
PUBLIC	??0?$tmat2x2@M$0A@@glm@@QAE@ABU?$tvec2@M$0A@@1@0@Z ; glm::tmat2x2<float,0>::tmat2x2<float,0>
PUBLIC	??0?$tmat2x2@M$0A@@glm@@QAE@ABU?$tmat3x3@M$0A@@1@@Z ; glm::tmat2x2<float,0>::tmat2x2<float,0>
PUBLIC	??0?$tmat2x2@M$0A@@glm@@QAE@ABU?$tmat4x4@M$0A@@1@@Z ; glm::tmat2x2<float,0>::tmat2x2<float,0>
PUBLIC	??0?$tmat2x2@M$0A@@glm@@QAE@ABU?$tmat2x3@M$0A@@1@@Z ; glm::tmat2x2<float,0>::tmat2x2<float,0>
PUBLIC	??0?$tmat2x2@M$0A@@glm@@QAE@ABU?$tmat3x2@M$0A@@1@@Z ; glm::tmat2x2<float,0>::tmat2x2<float,0>
PUBLIC	??0?$tmat2x2@M$0A@@glm@@QAE@ABU?$tmat2x4@M$0A@@1@@Z ; glm::tmat2x2<float,0>::tmat2x2<float,0>
PUBLIC	??0?$tmat2x2@M$0A@@glm@@QAE@ABU?$tmat4x2@M$0A@@1@@Z ; glm::tmat2x2<float,0>::tmat2x2<float,0>
PUBLIC	??0?$tmat2x2@M$0A@@glm@@QAE@ABU?$tmat3x4@M$0A@@1@@Z ; glm::tmat2x2<float,0>::tmat2x2<float,0>
PUBLIC	??0?$tmat2x2@M$0A@@glm@@QAE@ABU?$tmat4x3@M$0A@@1@@Z ; glm::tmat2x2<float,0>::tmat2x2<float,0>
PUBLIC	?length@?$tmat2x2@M$0A@@glm@@SAHXZ		; glm::tmat2x2<float,0>::length
PUBLIC	??A?$tmat2x2@M$0A@@glm@@QAEAAU?$tvec2@M$0A@@1@H@Z ; glm::tmat2x2<float,0>::operator[]
PUBLIC	??A?$tmat2x2@M$0A@@glm@@QBEABU?$tvec2@M$0A@@1@H@Z ; glm::tmat2x2<float,0>::operator[]
PUBLIC	??4?$tmat2x2@M$0A@@glm@@QAEAAU01@ABU01@@Z	; glm::tmat2x2<float,0>::operator=
PUBLIC	??E?$tmat2x2@M$0A@@glm@@QAEAAU01@XZ		; glm::tmat2x2<float,0>::operator++
PUBLIC	??F?$tmat2x2@M$0A@@glm@@QAEAAU01@XZ		; glm::tmat2x2<float,0>::operator--
PUBLIC	??E?$tmat2x2@M$0A@@glm@@QAE?AU01@H@Z		; glm::tmat2x2<float,0>::operator++
PUBLIC	??F?$tmat2x2@M$0A@@glm@@QAE?AU01@H@Z		; glm::tmat2x2<float,0>::operator--
PUBLIC	??0?$tmat2x2@N$0A@@glm@@QAE@XZ			; glm::tmat2x2<double,0>::tmat2x2<double,0>
PUBLIC	??0?$tmat2x2@N$0A@@glm@@QAE@ABU01@@Z		; glm::tmat2x2<double,0>::tmat2x2<double,0>
PUBLIC	??0?$tmat2x2@N$0A@@glm@@QAE@W4ctor@1@@Z		; glm::tmat2x2<double,0>::tmat2x2<double,0>
PUBLIC	??0?$tmat2x2@N$0A@@glm@@QAE@N@Z			; glm::tmat2x2<double,0>::tmat2x2<double,0>
PUBLIC	??0?$tmat2x2@N$0A@@glm@@QAE@ABN000@Z		; glm::tmat2x2<double,0>::tmat2x2<double,0>
PUBLIC	??0?$tmat2x2@N$0A@@glm@@QAE@ABU?$tvec2@N$0A@@1@0@Z ; glm::tmat2x2<double,0>::tmat2x2<double,0>
PUBLIC	??0?$tmat2x2@N$0A@@glm@@QAE@ABU?$tmat3x3@N$0A@@1@@Z ; glm::tmat2x2<double,0>::tmat2x2<double,0>
PUBLIC	??0?$tmat2x2@N$0A@@glm@@QAE@ABU?$tmat4x4@N$0A@@1@@Z ; glm::tmat2x2<double,0>::tmat2x2<double,0>
PUBLIC	??0?$tmat2x2@N$0A@@glm@@QAE@ABU?$tmat2x3@N$0A@@1@@Z ; glm::tmat2x2<double,0>::tmat2x2<double,0>
PUBLIC	??0?$tmat2x2@N$0A@@glm@@QAE@ABU?$tmat3x2@N$0A@@1@@Z ; glm::tmat2x2<double,0>::tmat2x2<double,0>
PUBLIC	??0?$tmat2x2@N$0A@@glm@@QAE@ABU?$tmat2x4@N$0A@@1@@Z ; glm::tmat2x2<double,0>::tmat2x2<double,0>
PUBLIC	??0?$tmat2x2@N$0A@@glm@@QAE@ABU?$tmat4x2@N$0A@@1@@Z ; glm::tmat2x2<double,0>::tmat2x2<double,0>
PUBLIC	??0?$tmat2x2@N$0A@@glm@@QAE@ABU?$tmat3x4@N$0A@@1@@Z ; glm::tmat2x2<double,0>::tmat2x2<double,0>
PUBLIC	??0?$tmat2x2@N$0A@@glm@@QAE@ABU?$tmat4x3@N$0A@@1@@Z ; glm::tmat2x2<double,0>::tmat2x2<double,0>
PUBLIC	?length@?$tmat2x2@N$0A@@glm@@SAHXZ		; glm::tmat2x2<double,0>::length
PUBLIC	??A?$tmat2x2@N$0A@@glm@@QAEAAU?$tvec2@N$0A@@1@H@Z ; glm::tmat2x2<double,0>::operator[]
PUBLIC	??A?$tmat2x2@N$0A@@glm@@QBEABU?$tvec2@N$0A@@1@H@Z ; glm::tmat2x2<double,0>::operator[]
PUBLIC	??4?$tmat2x2@N$0A@@glm@@QAEAAU01@ABU01@@Z	; glm::tmat2x2<double,0>::operator=
PUBLIC	??E?$tmat2x2@N$0A@@glm@@QAEAAU01@XZ		; glm::tmat2x2<double,0>::operator++
PUBLIC	??F?$tmat2x2@N$0A@@glm@@QAEAAU01@XZ		; glm::tmat2x2<double,0>::operator--
PUBLIC	??E?$tmat2x2@N$0A@@glm@@QAE?AU01@H@Z		; glm::tmat2x2<double,0>::operator++
PUBLIC	??F?$tmat2x2@N$0A@@glm@@QAE?AU01@H@Z		; glm::tmat2x2<double,0>::operator--
PUBLIC	??0?$tmat2x3@M$01@glm@@QAE@XZ			; glm::tmat2x3<float,2>::tmat2x3<float,2>
PUBLIC	??0?$tmat2x3@M$01@glm@@QAE@ABU01@@Z		; glm::tmat2x3<float,2>::tmat2x3<float,2>
PUBLIC	??0?$tmat2x3@M$01@glm@@QAE@W4ctor@1@@Z		; glm::tmat2x3<float,2>::tmat2x3<float,2>
PUBLIC	??0?$tmat2x3@M$01@glm@@QAE@M@Z			; glm::tmat2x3<float,2>::tmat2x3<float,2>
PUBLIC	??0?$tmat2x3@M$01@glm@@QAE@MMMMMM@Z		; glm::tmat2x3<float,2>::tmat2x3<float,2>
PUBLIC	??0?$tmat2x3@M$01@glm@@QAE@ABU?$tvec3@M$01@1@0@Z ; glm::tmat2x3<float,2>::tmat2x3<float,2>
PUBLIC	??0?$tmat2x3@M$01@glm@@QAE@ABU?$tmat2x2@M$01@1@@Z ; glm::tmat2x3<float,2>::tmat2x3<float,2>
PUBLIC	??0?$tmat2x3@M$01@glm@@QAE@ABU?$tmat3x3@M$01@1@@Z ; glm::tmat2x3<float,2>::tmat2x3<float,2>
PUBLIC	??0?$tmat2x3@M$01@glm@@QAE@ABU?$tmat4x4@M$01@1@@Z ; glm::tmat2x3<float,2>::tmat2x3<float,2>
PUBLIC	??0?$tmat2x3@M$01@glm@@QAE@ABU?$tmat2x4@M$01@1@@Z ; glm::tmat2x3<float,2>::tmat2x3<float,2>
PUBLIC	??0?$tmat2x3@M$01@glm@@QAE@ABU?$tmat3x2@M$01@1@@Z ; glm::tmat2x3<float,2>::tmat2x3<float,2>
PUBLIC	??0?$tmat2x3@M$01@glm@@QAE@ABU?$tmat3x4@M$01@1@@Z ; glm::tmat2x3<float,2>::tmat2x3<float,2>
PUBLIC	??0?$tmat2x3@M$01@glm@@QAE@ABU?$tmat4x2@M$01@1@@Z ; glm::tmat2x3<float,2>::tmat2x3<float,2>
PUBLIC	??0?$tmat2x3@M$01@glm@@QAE@ABU?$tmat4x3@M$01@1@@Z ; glm::tmat2x3<float,2>::tmat2x3<float,2>
PUBLIC	?length@?$tmat2x3@M$01@glm@@SAHXZ		; glm::tmat2x3<float,2>::length
PUBLIC	??A?$tmat2x3@M$01@glm@@QAEAAU?$tvec3@M$01@1@H@Z	; glm::tmat2x3<float,2>::operator[]
PUBLIC	??A?$tmat2x3@M$01@glm@@QBEABU?$tvec3@M$01@1@H@Z	; glm::tmat2x3<float,2>::operator[]
PUBLIC	??4?$tmat2x3@M$01@glm@@QAEAAU01@ABU01@@Z	; glm::tmat2x3<float,2>::operator=
PUBLIC	??E?$tmat2x3@M$01@glm@@QAEAAU01@XZ		; glm::tmat2x3<float,2>::operator++
PUBLIC	??F?$tmat2x3@M$01@glm@@QAEAAU01@XZ		; glm::tmat2x3<float,2>::operator--
PUBLIC	??E?$tmat2x3@M$01@glm@@QAE?AU01@H@Z		; glm::tmat2x3<float,2>::operator++
PUBLIC	??F?$tmat2x3@M$01@glm@@QAE?AU01@H@Z		; glm::tmat2x3<float,2>::operator--
PUBLIC	??0?$tmat2x3@N$01@glm@@QAE@XZ			; glm::tmat2x3<double,2>::tmat2x3<double,2>
PUBLIC	??0?$tmat2x3@N$01@glm@@QAE@ABU01@@Z		; glm::tmat2x3<double,2>::tmat2x3<double,2>
PUBLIC	??0?$tmat2x3@N$01@glm@@QAE@W4ctor@1@@Z		; glm::tmat2x3<double,2>::tmat2x3<double,2>
PUBLIC	??0?$tmat2x3@N$01@glm@@QAE@N@Z			; glm::tmat2x3<double,2>::tmat2x3<double,2>
PUBLIC	??0?$tmat2x3@N$01@glm@@QAE@NNNNNN@Z		; glm::tmat2x3<double,2>::tmat2x3<double,2>
PUBLIC	??0?$tmat2x3@N$01@glm@@QAE@ABU?$tvec3@N$01@1@0@Z ; glm::tmat2x3<double,2>::tmat2x3<double,2>
PUBLIC	??0?$tmat2x3@N$01@glm@@QAE@ABU?$tmat2x2@N$01@1@@Z ; glm::tmat2x3<double,2>::tmat2x3<double,2>
PUBLIC	??0?$tmat2x3@N$01@glm@@QAE@ABU?$tmat3x3@N$01@1@@Z ; glm::tmat2x3<double,2>::tmat2x3<double,2>
PUBLIC	??0?$tmat2x3@N$01@glm@@QAE@ABU?$tmat4x4@N$01@1@@Z ; glm::tmat2x3<double,2>::tmat2x3<double,2>
PUBLIC	??0?$tmat2x3@N$01@glm@@QAE@ABU?$tmat2x4@N$01@1@@Z ; glm::tmat2x3<double,2>::tmat2x3<double,2>
PUBLIC	??0?$tmat2x3@N$01@glm@@QAE@ABU?$tmat3x2@N$01@1@@Z ; glm::tmat2x3<double,2>::tmat2x3<double,2>
PUBLIC	??0?$tmat2x3@N$01@glm@@QAE@ABU?$tmat3x4@N$01@1@@Z ; glm::tmat2x3<double,2>::tmat2x3<double,2>
PUBLIC	??0?$tmat2x3@N$01@glm@@QAE@ABU?$tmat4x2@N$01@1@@Z ; glm::tmat2x3<double,2>::tmat2x3<double,2>
PUBLIC	??0?$tmat2x3@N$01@glm@@QAE@ABU?$tmat4x3@N$01@1@@Z ; glm::tmat2x3<double,2>::tmat2x3<double,2>
PUBLIC	?length@?$tmat2x3@N$01@glm@@SAHXZ		; glm::tmat2x3<double,2>::length
PUBLIC	??A?$tmat2x3@N$01@glm@@QAEAAU?$tvec3@N$01@1@H@Z	; glm::tmat2x3<double,2>::operator[]
PUBLIC	??A?$tmat2x3@N$01@glm@@QBEABU?$tvec3@N$01@1@H@Z	; glm::tmat2x3<double,2>::operator[]
PUBLIC	??4?$tmat2x3@N$01@glm@@QAEAAU01@ABU01@@Z	; glm::tmat2x3<double,2>::operator=
PUBLIC	??E?$tmat2x3@N$01@glm@@QAEAAU01@XZ		; glm::tmat2x3<double,2>::operator++
PUBLIC	??F?$tmat2x3@N$01@glm@@QAEAAU01@XZ		; glm::tmat2x3<double,2>::operator--
PUBLIC	??E?$tmat2x3@N$01@glm@@QAE?AU01@H@Z		; glm::tmat2x3<double,2>::operator++
PUBLIC	??F?$tmat2x3@N$01@glm@@QAE?AU01@H@Z		; glm::tmat2x3<double,2>::operator--
PUBLIC	??0?$tmat2x3@M$00@glm@@QAE@XZ			; glm::tmat2x3<float,1>::tmat2x3<float,1>
PUBLIC	??0?$tmat2x3@M$00@glm@@QAE@ABU01@@Z		; glm::tmat2x3<float,1>::tmat2x3<float,1>
PUBLIC	??0?$tmat2x3@M$00@glm@@QAE@W4ctor@1@@Z		; glm::tmat2x3<float,1>::tmat2x3<float,1>
PUBLIC	??0?$tmat2x3@M$00@glm@@QAE@M@Z			; glm::tmat2x3<float,1>::tmat2x3<float,1>
PUBLIC	??0?$tmat2x3@M$00@glm@@QAE@MMMMMM@Z		; glm::tmat2x3<float,1>::tmat2x3<float,1>
PUBLIC	??0?$tmat2x3@M$00@glm@@QAE@ABU?$tvec3@M$00@1@0@Z ; glm::tmat2x3<float,1>::tmat2x3<float,1>
PUBLIC	??0?$tmat2x3@M$00@glm@@QAE@ABU?$tmat2x2@M$00@1@@Z ; glm::tmat2x3<float,1>::tmat2x3<float,1>
PUBLIC	??0?$tmat2x3@M$00@glm@@QAE@ABU?$tmat3x3@M$00@1@@Z ; glm::tmat2x3<float,1>::tmat2x3<float,1>
PUBLIC	??0?$tmat2x3@M$00@glm@@QAE@ABU?$tmat4x4@M$00@1@@Z ; glm::tmat2x3<float,1>::tmat2x3<float,1>
PUBLIC	??0?$tmat2x3@M$00@glm@@QAE@ABU?$tmat2x4@M$00@1@@Z ; glm::tmat2x3<float,1>::tmat2x3<float,1>
PUBLIC	??0?$tmat2x3@M$00@glm@@QAE@ABU?$tmat3x2@M$00@1@@Z ; glm::tmat2x3<float,1>::tmat2x3<float,1>
PUBLIC	??0?$tmat2x3@M$00@glm@@QAE@ABU?$tmat3x4@M$00@1@@Z ; glm::tmat2x3<float,1>::tmat2x3<float,1>
PUBLIC	??0?$tmat2x3@M$00@glm@@QAE@ABU?$tmat4x2@M$00@1@@Z ; glm::tmat2x3<float,1>::tmat2x3<float,1>
PUBLIC	??0?$tmat2x3@M$00@glm@@QAE@ABU?$tmat4x3@M$00@1@@Z ; glm::tmat2x3<float,1>::tmat2x3<float,1>
PUBLIC	?length@?$tmat2x3@M$00@glm@@SAHXZ		; glm::tmat2x3<float,1>::length
PUBLIC	??A?$tmat2x3@M$00@glm@@QAEAAU?$tvec3@M$00@1@H@Z	; glm::tmat2x3<float,1>::operator[]
PUBLIC	??A?$tmat2x3@M$00@glm@@QBEABU?$tvec3@M$00@1@H@Z	; glm::tmat2x3<float,1>::operator[]
PUBLIC	??4?$tmat2x3@M$00@glm@@QAEAAU01@ABU01@@Z	; glm::tmat2x3<float,1>::operator=
PUBLIC	??E?$tmat2x3@M$00@glm@@QAEAAU01@XZ		; glm::tmat2x3<float,1>::operator++
PUBLIC	??F?$tmat2x3@M$00@glm@@QAEAAU01@XZ		; glm::tmat2x3<float,1>::operator--
PUBLIC	??E?$tmat2x3@M$00@glm@@QAE?AU01@H@Z		; glm::tmat2x3<float,1>::operator++
PUBLIC	??F?$tmat2x3@M$00@glm@@QAE?AU01@H@Z		; glm::tmat2x3<float,1>::operator--
PUBLIC	??0?$tmat2x3@N$00@glm@@QAE@XZ			; glm::tmat2x3<double,1>::tmat2x3<double,1>
PUBLIC	??0?$tmat2x3@N$00@glm@@QAE@ABU01@@Z		; glm::tmat2x3<double,1>::tmat2x3<double,1>
PUBLIC	??0?$tmat2x3@N$00@glm@@QAE@W4ctor@1@@Z		; glm::tmat2x3<double,1>::tmat2x3<double,1>
PUBLIC	??0?$tmat2x3@N$00@glm@@QAE@N@Z			; glm::tmat2x3<double,1>::tmat2x3<double,1>
PUBLIC	??0?$tmat2x3@N$00@glm@@QAE@NNNNNN@Z		; glm::tmat2x3<double,1>::tmat2x3<double,1>
PUBLIC	??0?$tmat2x3@N$00@glm@@QAE@ABU?$tvec3@N$00@1@0@Z ; glm::tmat2x3<double,1>::tmat2x3<double,1>
PUBLIC	??0?$tmat2x3@N$00@glm@@QAE@ABU?$tmat2x2@N$00@1@@Z ; glm::tmat2x3<double,1>::tmat2x3<double,1>
PUBLIC	??0?$tmat2x3@N$00@glm@@QAE@ABU?$tmat3x3@N$00@1@@Z ; glm::tmat2x3<double,1>::tmat2x3<double,1>
PUBLIC	??0?$tmat2x3@N$00@glm@@QAE@ABU?$tmat4x4@N$00@1@@Z ; glm::tmat2x3<double,1>::tmat2x3<double,1>
PUBLIC	??0?$tmat2x3@N$00@glm@@QAE@ABU?$tmat2x4@N$00@1@@Z ; glm::tmat2x3<double,1>::tmat2x3<double,1>
PUBLIC	??0?$tmat2x3@N$00@glm@@QAE@ABU?$tmat3x2@N$00@1@@Z ; glm::tmat2x3<double,1>::tmat2x3<double,1>
PUBLIC	??0?$tmat2x3@N$00@glm@@QAE@ABU?$tmat3x4@N$00@1@@Z ; glm::tmat2x3<double,1>::tmat2x3<double,1>
PUBLIC	??0?$tmat2x3@N$00@glm@@QAE@ABU?$tmat4x2@N$00@1@@Z ; glm::tmat2x3<double,1>::tmat2x3<double,1>
PUBLIC	??0?$tmat2x3@N$00@glm@@QAE@ABU?$tmat4x3@N$00@1@@Z ; glm::tmat2x3<double,1>::tmat2x3<double,1>
PUBLIC	?length@?$tmat2x3@N$00@glm@@SAHXZ		; glm::tmat2x3<double,1>::length
PUBLIC	??A?$tmat2x3@N$00@glm@@QAEAAU?$tvec3@N$00@1@H@Z	; glm::tmat2x3<double,1>::operator[]
PUBLIC	??A?$tmat2x3@N$00@glm@@QBEABU?$tvec3@N$00@1@H@Z	; glm::tmat2x3<double,1>::operator[]
PUBLIC	??4?$tmat2x3@N$00@glm@@QAEAAU01@ABU01@@Z	; glm::tmat2x3<double,1>::operator=
PUBLIC	??E?$tmat2x3@N$00@glm@@QAEAAU01@XZ		; glm::tmat2x3<double,1>::operator++
PUBLIC	??F?$tmat2x3@N$00@glm@@QAEAAU01@XZ		; glm::tmat2x3<double,1>::operator--
PUBLIC	??E?$tmat2x3@N$00@glm@@QAE?AU01@H@Z		; glm::tmat2x3<double,1>::operator++
PUBLIC	??F?$tmat2x3@N$00@glm@@QAE?AU01@H@Z		; glm::tmat2x3<double,1>::operator--
PUBLIC	??0?$tmat2x3@M$0A@@glm@@QAE@XZ			; glm::tmat2x3<float,0>::tmat2x3<float,0>
PUBLIC	??0?$tmat2x3@M$0A@@glm@@QAE@ABU01@@Z		; glm::tmat2x3<float,0>::tmat2x3<float,0>
PUBLIC	??0?$tmat2x3@M$0A@@glm@@QAE@W4ctor@1@@Z		; glm::tmat2x3<float,0>::tmat2x3<float,0>
PUBLIC	??0?$tmat2x3@M$0A@@glm@@QAE@M@Z			; glm::tmat2x3<float,0>::tmat2x3<float,0>
PUBLIC	??0?$tmat2x3@M$0A@@glm@@QAE@MMMMMM@Z		; glm::tmat2x3<float,0>::tmat2x3<float,0>
PUBLIC	??0?$tmat2x3@M$0A@@glm@@QAE@ABU?$tvec3@M$0A@@1@0@Z ; glm::tmat2x3<float,0>::tmat2x3<float,0>
PUBLIC	??0?$tmat2x3@M$0A@@glm@@QAE@ABU?$tmat2x2@M$0A@@1@@Z ; glm::tmat2x3<float,0>::tmat2x3<float,0>
PUBLIC	??0?$tmat2x3@M$0A@@glm@@QAE@ABU?$tmat3x3@M$0A@@1@@Z ; glm::tmat2x3<float,0>::tmat2x3<float,0>
PUBLIC	??0?$tmat2x3@M$0A@@glm@@QAE@ABU?$tmat4x4@M$0A@@1@@Z ; glm::tmat2x3<float,0>::tmat2x3<float,0>
PUBLIC	??0?$tmat2x3@M$0A@@glm@@QAE@ABU?$tmat2x4@M$0A@@1@@Z ; glm::tmat2x3<float,0>::tmat2x3<float,0>
PUBLIC	??0?$tmat2x3@M$0A@@glm@@QAE@ABU?$tmat3x2@M$0A@@1@@Z ; glm::tmat2x3<float,0>::tmat2x3<float,0>
PUBLIC	??0?$tmat2x3@M$0A@@glm@@QAE@ABU?$tmat3x4@M$0A@@1@@Z ; glm::tmat2x3<float,0>::tmat2x3<float,0>
PUBLIC	??0?$tmat2x3@M$0A@@glm@@QAE@ABU?$tmat4x2@M$0A@@1@@Z ; glm::tmat2x3<float,0>::tmat2x3<float,0>
PUBLIC	??0?$tmat2x3@M$0A@@glm@@QAE@ABU?$tmat4x3@M$0A@@1@@Z ; glm::tmat2x3<float,0>::tmat2x3<float,0>
PUBLIC	?length@?$tmat2x3@M$0A@@glm@@SAHXZ		; glm::tmat2x3<float,0>::length
PUBLIC	??A?$tmat2x3@M$0A@@glm@@QAEAAU?$tvec3@M$0A@@1@H@Z ; glm::tmat2x3<float,0>::operator[]
PUBLIC	??A?$tmat2x3@M$0A@@glm@@QBEABU?$tvec3@M$0A@@1@H@Z ; glm::tmat2x3<float,0>::operator[]
PUBLIC	??4?$tmat2x3@M$0A@@glm@@QAEAAU01@ABU01@@Z	; glm::tmat2x3<float,0>::operator=
PUBLIC	??E?$tmat2x3@M$0A@@glm@@QAEAAU01@XZ		; glm::tmat2x3<float,0>::operator++
PUBLIC	??F?$tmat2x3@M$0A@@glm@@QAEAAU01@XZ		; glm::tmat2x3<float,0>::operator--
PUBLIC	??E?$tmat2x3@M$0A@@glm@@QAE?AU01@H@Z		; glm::tmat2x3<float,0>::operator++
PUBLIC	??F?$tmat2x3@M$0A@@glm@@QAE?AU01@H@Z		; glm::tmat2x3<float,0>::operator--
PUBLIC	??0?$tmat2x3@N$0A@@glm@@QAE@XZ			; glm::tmat2x3<double,0>::tmat2x3<double,0>
PUBLIC	??0?$tmat2x3@N$0A@@glm@@QAE@ABU01@@Z		; glm::tmat2x3<double,0>::tmat2x3<double,0>
PUBLIC	??0?$tmat2x3@N$0A@@glm@@QAE@W4ctor@1@@Z		; glm::tmat2x3<double,0>::tmat2x3<double,0>
PUBLIC	??0?$tmat2x3@N$0A@@glm@@QAE@N@Z			; glm::tmat2x3<double,0>::tmat2x3<double,0>
PUBLIC	??0?$tmat2x3@N$0A@@glm@@QAE@NNNNNN@Z		; glm::tmat2x3<double,0>::tmat2x3<double,0>
PUBLIC	??0?$tmat2x3@N$0A@@glm@@QAE@ABU?$tvec3@N$0A@@1@0@Z ; glm::tmat2x3<double,0>::tmat2x3<double,0>
PUBLIC	??0?$tmat2x3@N$0A@@glm@@QAE@ABU?$tmat2x2@N$0A@@1@@Z ; glm::tmat2x3<double,0>::tmat2x3<double,0>
PUBLIC	??0?$tmat2x3@N$0A@@glm@@QAE@ABU?$tmat3x3@N$0A@@1@@Z ; glm::tmat2x3<double,0>::tmat2x3<double,0>
PUBLIC	??0?$tmat2x3@N$0A@@glm@@QAE@ABU?$tmat4x4@N$0A@@1@@Z ; glm::tmat2x3<double,0>::tmat2x3<double,0>
PUBLIC	??0?$tmat2x3@N$0A@@glm@@QAE@ABU?$tmat2x4@N$0A@@1@@Z ; glm::tmat2x3<double,0>::tmat2x3<double,0>
PUBLIC	??0?$tmat2x3@N$0A@@glm@@QAE@ABU?$tmat3x2@N$0A@@1@@Z ; glm::tmat2x3<double,0>::tmat2x3<double,0>
PUBLIC	??0?$tmat2x3@N$0A@@glm@@QAE@ABU?$tmat3x4@N$0A@@1@@Z ; glm::tmat2x3<double,0>::tmat2x3<double,0>
PUBLIC	??0?$tmat2x3@N$0A@@glm@@QAE@ABU?$tmat4x2@N$0A@@1@@Z ; glm::tmat2x3<double,0>::tmat2x3<double,0>
PUBLIC	??0?$tmat2x3@N$0A@@glm@@QAE@ABU?$tmat4x3@N$0A@@1@@Z ; glm::tmat2x3<double,0>::tmat2x3<double,0>
PUBLIC	?length@?$tmat2x3@N$0A@@glm@@SAHXZ		; glm::tmat2x3<double,0>::length
PUBLIC	??A?$tmat2x3@N$0A@@glm@@QAEAAU?$tvec3@N$0A@@1@H@Z ; glm::tmat2x3<double,0>::operator[]
PUBLIC	??A?$tmat2x3@N$0A@@glm@@QBEABU?$tvec3@N$0A@@1@H@Z ; glm::tmat2x3<double,0>::operator[]
PUBLIC	??4?$tmat2x3@N$0A@@glm@@QAEAAU01@ABU01@@Z	; glm::tmat2x3<double,0>::operator=
PUBLIC	??E?$tmat2x3@N$0A@@glm@@QAEAAU01@XZ		; glm::tmat2x3<double,0>::operator++
PUBLIC	??F?$tmat2x3@N$0A@@glm@@QAEAAU01@XZ		; glm::tmat2x3<double,0>::operator--
PUBLIC	??E?$tmat2x3@N$0A@@glm@@QAE?AU01@H@Z		; glm::tmat2x3<double,0>::operator++
PUBLIC	??F?$tmat2x3@N$0A@@glm@@QAE?AU01@H@Z		; glm::tmat2x3<double,0>::operator--
PUBLIC	??0?$tmat2x4@M$01@glm@@QAE@XZ			; glm::tmat2x4<float,2>::tmat2x4<float,2>
PUBLIC	??0?$tmat2x4@M$01@glm@@QAE@ABU01@@Z		; glm::tmat2x4<float,2>::tmat2x4<float,2>
PUBLIC	??0?$tmat2x4@M$01@glm@@QAE@W4ctor@1@@Z		; glm::tmat2x4<float,2>::tmat2x4<float,2>
PUBLIC	??0?$tmat2x4@M$01@glm@@QAE@M@Z			; glm::tmat2x4<float,2>::tmat2x4<float,2>
PUBLIC	??0?$tmat2x4@M$01@glm@@QAE@MMMMMMMM@Z		; glm::tmat2x4<float,2>::tmat2x4<float,2>
PUBLIC	??0?$tmat2x4@M$01@glm@@QAE@ABU?$tvec4@M$01@1@0@Z ; glm::tmat2x4<float,2>::tmat2x4<float,2>
PUBLIC	??0?$tmat2x4@M$01@glm@@QAE@ABU?$tmat2x2@M$01@1@@Z ; glm::tmat2x4<float,2>::tmat2x4<float,2>
PUBLIC	??0?$tmat2x4@M$01@glm@@QAE@ABU?$tmat3x3@M$01@1@@Z ; glm::tmat2x4<float,2>::tmat2x4<float,2>
PUBLIC	??0?$tmat2x4@M$01@glm@@QAE@ABU?$tmat4x4@M$01@1@@Z ; glm::tmat2x4<float,2>::tmat2x4<float,2>
PUBLIC	??0?$tmat2x4@M$01@glm@@QAE@ABU?$tmat2x3@M$01@1@@Z ; glm::tmat2x4<float,2>::tmat2x4<float,2>
PUBLIC	??0?$tmat2x4@M$01@glm@@QAE@ABU?$tmat3x2@M$01@1@@Z ; glm::tmat2x4<float,2>::tmat2x4<float,2>
PUBLIC	??0?$tmat2x4@M$01@glm@@QAE@ABU?$tmat3x4@M$01@1@@Z ; glm::tmat2x4<float,2>::tmat2x4<float,2>
PUBLIC	??0?$tmat2x4@M$01@glm@@QAE@ABU?$tmat4x2@M$01@1@@Z ; glm::tmat2x4<float,2>::tmat2x4<float,2>
PUBLIC	??0?$tmat2x4@M$01@glm@@QAE@ABU?$tmat4x3@M$01@1@@Z ; glm::tmat2x4<float,2>::tmat2x4<float,2>
PUBLIC	?length@?$tmat2x4@M$01@glm@@SAHXZ		; glm::tmat2x4<float,2>::length
PUBLIC	??A?$tmat2x4@M$01@glm@@QAEAAU?$tvec4@M$01@1@H@Z	; glm::tmat2x4<float,2>::operator[]
PUBLIC	??A?$tmat2x4@M$01@glm@@QBEABU?$tvec4@M$01@1@H@Z	; glm::tmat2x4<float,2>::operator[]
PUBLIC	??4?$tmat2x4@M$01@glm@@QAEAAU01@ABU01@@Z	; glm::tmat2x4<float,2>::operator=
PUBLIC	??E?$tmat2x4@M$01@glm@@QAEAAU01@XZ		; glm::tmat2x4<float,2>::operator++
PUBLIC	??F?$tmat2x4@M$01@glm@@QAEAAU01@XZ		; glm::tmat2x4<float,2>::operator--
PUBLIC	??E?$tmat2x4@M$01@glm@@QAE?AU01@H@Z		; glm::tmat2x4<float,2>::operator++
PUBLIC	??F?$tmat2x4@M$01@glm@@QAE?AU01@H@Z		; glm::tmat2x4<float,2>::operator--
PUBLIC	??0?$tmat2x4@N$01@glm@@QAE@XZ			; glm::tmat2x4<double,2>::tmat2x4<double,2>
PUBLIC	??0?$tmat2x4@N$01@glm@@QAE@ABU01@@Z		; glm::tmat2x4<double,2>::tmat2x4<double,2>
PUBLIC	??0?$tmat2x4@N$01@glm@@QAE@W4ctor@1@@Z		; glm::tmat2x4<double,2>::tmat2x4<double,2>
PUBLIC	??0?$tmat2x4@N$01@glm@@QAE@N@Z			; glm::tmat2x4<double,2>::tmat2x4<double,2>
PUBLIC	??0?$tmat2x4@N$01@glm@@QAE@NNNNNNNN@Z		; glm::tmat2x4<double,2>::tmat2x4<double,2>
PUBLIC	??0?$tmat2x4@N$01@glm@@QAE@ABU?$tvec4@N$01@1@0@Z ; glm::tmat2x4<double,2>::tmat2x4<double,2>
PUBLIC	??0?$tmat2x4@N$01@glm@@QAE@ABU?$tmat2x2@N$01@1@@Z ; glm::tmat2x4<double,2>::tmat2x4<double,2>
PUBLIC	??0?$tmat2x4@N$01@glm@@QAE@ABU?$tmat3x3@N$01@1@@Z ; glm::tmat2x4<double,2>::tmat2x4<double,2>
PUBLIC	??0?$tmat2x4@N$01@glm@@QAE@ABU?$tmat4x4@N$01@1@@Z ; glm::tmat2x4<double,2>::tmat2x4<double,2>
PUBLIC	??0?$tmat2x4@N$01@glm@@QAE@ABU?$tmat2x3@N$01@1@@Z ; glm::tmat2x4<double,2>::tmat2x4<double,2>
PUBLIC	??0?$tmat2x4@N$01@glm@@QAE@ABU?$tmat3x2@N$01@1@@Z ; glm::tmat2x4<double,2>::tmat2x4<double,2>
PUBLIC	??0?$tmat2x4@N$01@glm@@QAE@ABU?$tmat3x4@N$01@1@@Z ; glm::tmat2x4<double,2>::tmat2x4<double,2>
PUBLIC	??0?$tmat2x4@N$01@glm@@QAE@ABU?$tmat4x2@N$01@1@@Z ; glm::tmat2x4<double,2>::tmat2x4<double,2>
PUBLIC	??0?$tmat2x4@N$01@glm@@QAE@ABU?$tmat4x3@N$01@1@@Z ; glm::tmat2x4<double,2>::tmat2x4<double,2>
PUBLIC	?length@?$tmat2x4@N$01@glm@@SAHXZ		; glm::tmat2x4<double,2>::length
PUBLIC	??A?$tmat2x4@N$01@glm@@QAEAAU?$tvec4@N$01@1@H@Z	; glm::tmat2x4<double,2>::operator[]
PUBLIC	??A?$tmat2x4@N$01@glm@@QBEABU?$tvec4@N$01@1@H@Z	; glm::tmat2x4<double,2>::operator[]
PUBLIC	??4?$tmat2x4@N$01@glm@@QAEAAU01@ABU01@@Z	; glm::tmat2x4<double,2>::operator=
PUBLIC	??E?$tmat2x4@N$01@glm@@QAEAAU01@XZ		; glm::tmat2x4<double,2>::operator++
PUBLIC	??F?$tmat2x4@N$01@glm@@QAEAAU01@XZ		; glm::tmat2x4<double,2>::operator--
PUBLIC	??E?$tmat2x4@N$01@glm@@QAE?AU01@H@Z		; glm::tmat2x4<double,2>::operator++
PUBLIC	??F?$tmat2x4@N$01@glm@@QAE?AU01@H@Z		; glm::tmat2x4<double,2>::operator--
PUBLIC	??0?$tmat2x4@M$00@glm@@QAE@XZ			; glm::tmat2x4<float,1>::tmat2x4<float,1>
PUBLIC	??0?$tmat2x4@M$00@glm@@QAE@ABU01@@Z		; glm::tmat2x4<float,1>::tmat2x4<float,1>
PUBLIC	??0?$tmat2x4@M$00@glm@@QAE@W4ctor@1@@Z		; glm::tmat2x4<float,1>::tmat2x4<float,1>
PUBLIC	??0?$tmat2x4@M$00@glm@@QAE@M@Z			; glm::tmat2x4<float,1>::tmat2x4<float,1>
PUBLIC	??0?$tmat2x4@M$00@glm@@QAE@MMMMMMMM@Z		; glm::tmat2x4<float,1>::tmat2x4<float,1>
PUBLIC	??0?$tmat2x4@M$00@glm@@QAE@ABU?$tvec4@M$00@1@0@Z ; glm::tmat2x4<float,1>::tmat2x4<float,1>
PUBLIC	??0?$tmat2x4@M$00@glm@@QAE@ABU?$tmat2x2@M$00@1@@Z ; glm::tmat2x4<float,1>::tmat2x4<float,1>
PUBLIC	??0?$tmat2x4@M$00@glm@@QAE@ABU?$tmat3x3@M$00@1@@Z ; glm::tmat2x4<float,1>::tmat2x4<float,1>
PUBLIC	??0?$tmat2x4@M$00@glm@@QAE@ABU?$tmat4x4@M$00@1@@Z ; glm::tmat2x4<float,1>::tmat2x4<float,1>
PUBLIC	??0?$tmat2x4@M$00@glm@@QAE@ABU?$tmat2x3@M$00@1@@Z ; glm::tmat2x4<float,1>::tmat2x4<float,1>
PUBLIC	??0?$tmat2x4@M$00@glm@@QAE@ABU?$tmat3x2@M$00@1@@Z ; glm::tmat2x4<float,1>::tmat2x4<float,1>
PUBLIC	??0?$tmat2x4@M$00@glm@@QAE@ABU?$tmat3x4@M$00@1@@Z ; glm::tmat2x4<float,1>::tmat2x4<float,1>
PUBLIC	??0?$tmat2x4@M$00@glm@@QAE@ABU?$tmat4x2@M$00@1@@Z ; glm::tmat2x4<float,1>::tmat2x4<float,1>
PUBLIC	??0?$tmat2x4@M$00@glm@@QAE@ABU?$tmat4x3@M$00@1@@Z ; glm::tmat2x4<float,1>::tmat2x4<float,1>
PUBLIC	?length@?$tmat2x4@M$00@glm@@SAHXZ		; glm::tmat2x4<float,1>::length
PUBLIC	??A?$tmat2x4@M$00@glm@@QAEAAU?$tvec4@M$00@1@H@Z	; glm::tmat2x4<float,1>::operator[]
PUBLIC	??A?$tmat2x4@M$00@glm@@QBEABU?$tvec4@M$00@1@H@Z	; glm::tmat2x4<float,1>::operator[]
PUBLIC	??4?$tmat2x4@M$00@glm@@QAEAAU01@ABU01@@Z	; glm::tmat2x4<float,1>::operator=
PUBLIC	??E?$tmat2x4@M$00@glm@@QAEAAU01@XZ		; glm::tmat2x4<float,1>::operator++
PUBLIC	??F?$tmat2x4@M$00@glm@@QAEAAU01@XZ		; glm::tmat2x4<float,1>::operator--
PUBLIC	??E?$tmat2x4@M$00@glm@@QAE?AU01@H@Z		; glm::tmat2x4<float,1>::operator++
PUBLIC	??F?$tmat2x4@M$00@glm@@QAE?AU01@H@Z		; glm::tmat2x4<float,1>::operator--
PUBLIC	??0?$tmat2x4@N$00@glm@@QAE@XZ			; glm::tmat2x4<double,1>::tmat2x4<double,1>
PUBLIC	??0?$tmat2x4@N$00@glm@@QAE@ABU01@@Z		; glm::tmat2x4<double,1>::tmat2x4<double,1>
PUBLIC	??0?$tmat2x4@N$00@glm@@QAE@W4ctor@1@@Z		; glm::tmat2x4<double,1>::tmat2x4<double,1>
PUBLIC	??0?$tmat2x4@N$00@glm@@QAE@N@Z			; glm::tmat2x4<double,1>::tmat2x4<double,1>
PUBLIC	??0?$tmat2x4@N$00@glm@@QAE@NNNNNNNN@Z		; glm::tmat2x4<double,1>::tmat2x4<double,1>
PUBLIC	??0?$tmat2x4@N$00@glm@@QAE@ABU?$tvec4@N$00@1@0@Z ; glm::tmat2x4<double,1>::tmat2x4<double,1>
PUBLIC	??0?$tmat2x4@N$00@glm@@QAE@ABU?$tmat2x2@N$00@1@@Z ; glm::tmat2x4<double,1>::tmat2x4<double,1>
PUBLIC	??0?$tmat2x4@N$00@glm@@QAE@ABU?$tmat3x3@N$00@1@@Z ; glm::tmat2x4<double,1>::tmat2x4<double,1>
PUBLIC	??0?$tmat2x4@N$00@glm@@QAE@ABU?$tmat4x4@N$00@1@@Z ; glm::tmat2x4<double,1>::tmat2x4<double,1>
PUBLIC	??0?$tmat2x4@N$00@glm@@QAE@ABU?$tmat2x3@N$00@1@@Z ; glm::tmat2x4<double,1>::tmat2x4<double,1>
PUBLIC	??0?$tmat2x4@N$00@glm@@QAE@ABU?$tmat3x2@N$00@1@@Z ; glm::tmat2x4<double,1>::tmat2x4<double,1>
PUBLIC	??0?$tmat2x4@N$00@glm@@QAE@ABU?$tmat3x4@N$00@1@@Z ; glm::tmat2x4<double,1>::tmat2x4<double,1>
PUBLIC	??0?$tmat2x4@N$00@glm@@QAE@ABU?$tmat4x2@N$00@1@@Z ; glm::tmat2x4<double,1>::tmat2x4<double,1>
PUBLIC	??0?$tmat2x4@N$00@glm@@QAE@ABU?$tmat4x3@N$00@1@@Z ; glm::tmat2x4<double,1>::tmat2x4<double,1>
PUBLIC	?length@?$tmat2x4@N$00@glm@@SAHXZ		; glm::tmat2x4<double,1>::length
PUBLIC	??A?$tmat2x4@N$00@glm@@QAEAAU?$tvec4@N$00@1@H@Z	; glm::tmat2x4<double,1>::operator[]
PUBLIC	??A?$tmat2x4@N$00@glm@@QBEABU?$tvec4@N$00@1@H@Z	; glm::tmat2x4<double,1>::operator[]
PUBLIC	??4?$tmat2x4@N$00@glm@@QAEAAU01@ABU01@@Z	; glm::tmat2x4<double,1>::operator=
PUBLIC	??E?$tmat2x4@N$00@glm@@QAEAAU01@XZ		; glm::tmat2x4<double,1>::operator++
PUBLIC	??F?$tmat2x4@N$00@glm@@QAEAAU01@XZ		; glm::tmat2x4<double,1>::operator--
PUBLIC	??E?$tmat2x4@N$00@glm@@QAE?AU01@H@Z		; glm::tmat2x4<double,1>::operator++
PUBLIC	??F?$tmat2x4@N$00@glm@@QAE?AU01@H@Z		; glm::tmat2x4<double,1>::operator--
PUBLIC	??0?$tmat2x4@M$0A@@glm@@QAE@XZ			; glm::tmat2x4<float,0>::tmat2x4<float,0>
PUBLIC	??0?$tmat2x4@M$0A@@glm@@QAE@ABU01@@Z		; glm::tmat2x4<float,0>::tmat2x4<float,0>
PUBLIC	??0?$tmat2x4@M$0A@@glm@@QAE@W4ctor@1@@Z		; glm::tmat2x4<float,0>::tmat2x4<float,0>
PUBLIC	??0?$tmat2x4@M$0A@@glm@@QAE@M@Z			; glm::tmat2x4<float,0>::tmat2x4<float,0>
PUBLIC	??0?$tmat2x4@M$0A@@glm@@QAE@MMMMMMMM@Z		; glm::tmat2x4<float,0>::tmat2x4<float,0>
PUBLIC	??0?$tmat2x4@M$0A@@glm@@QAE@ABU?$tvec4@M$0A@@1@0@Z ; glm::tmat2x4<float,0>::tmat2x4<float,0>
PUBLIC	??0?$tmat2x4@M$0A@@glm@@QAE@ABU?$tmat2x2@M$0A@@1@@Z ; glm::tmat2x4<float,0>::tmat2x4<float,0>
PUBLIC	??0?$tmat2x4@M$0A@@glm@@QAE@ABU?$tmat3x3@M$0A@@1@@Z ; glm::tmat2x4<float,0>::tmat2x4<float,0>
PUBLIC	??0?$tmat2x4@M$0A@@glm@@QAE@ABU?$tmat4x4@M$0A@@1@@Z ; glm::tmat2x4<float,0>::tmat2x4<float,0>
PUBLIC	??0?$tmat2x4@M$0A@@glm@@QAE@ABU?$tmat2x3@M$0A@@1@@Z ; glm::tmat2x4<float,0>::tmat2x4<float,0>
PUBLIC	??0?$tmat2x4@M$0A@@glm@@QAE@ABU?$tmat3x2@M$0A@@1@@Z ; glm::tmat2x4<float,0>::tmat2x4<float,0>
PUBLIC	??0?$tmat2x4@M$0A@@glm@@QAE@ABU?$tmat3x4@M$0A@@1@@Z ; glm::tmat2x4<float,0>::tmat2x4<float,0>
PUBLIC	??0?$tmat2x4@M$0A@@glm@@QAE@ABU?$tmat4x2@M$0A@@1@@Z ; glm::tmat2x4<float,0>::tmat2x4<float,0>
PUBLIC	??0?$tmat2x4@M$0A@@glm@@QAE@ABU?$tmat4x3@M$0A@@1@@Z ; glm::tmat2x4<float,0>::tmat2x4<float,0>
PUBLIC	?length@?$tmat2x4@M$0A@@glm@@SAHXZ		; glm::tmat2x4<float,0>::length
PUBLIC	??A?$tmat2x4@M$0A@@glm@@QAEAAU?$tvec4@M$0A@@1@H@Z ; glm::tmat2x4<float,0>::operator[]
PUBLIC	??A?$tmat2x4@M$0A@@glm@@QBEABU?$tvec4@M$0A@@1@H@Z ; glm::tmat2x4<float,0>::operator[]
PUBLIC	??4?$tmat2x4@M$0A@@glm@@QAEAAU01@ABU01@@Z	; glm::tmat2x4<float,0>::operator=
PUBLIC	??E?$tmat2x4@M$0A@@glm@@QAEAAU01@XZ		; glm::tmat2x4<float,0>::operator++
PUBLIC	??F?$tmat2x4@M$0A@@glm@@QAEAAU01@XZ		; glm::tmat2x4<float,0>::operator--
PUBLIC	??E?$tmat2x4@M$0A@@glm@@QAE?AU01@H@Z		; glm::tmat2x4<float,0>::operator++
PUBLIC	??F?$tmat2x4@M$0A@@glm@@QAE?AU01@H@Z		; glm::tmat2x4<float,0>::operator--
PUBLIC	??0?$tmat2x4@N$0A@@glm@@QAE@XZ			; glm::tmat2x4<double,0>::tmat2x4<double,0>
PUBLIC	??0?$tmat2x4@N$0A@@glm@@QAE@ABU01@@Z		; glm::tmat2x4<double,0>::tmat2x4<double,0>
PUBLIC	??0?$tmat2x4@N$0A@@glm@@QAE@W4ctor@1@@Z		; glm::tmat2x4<double,0>::tmat2x4<double,0>
PUBLIC	??0?$tmat2x4@N$0A@@glm@@QAE@N@Z			; glm::tmat2x4<double,0>::tmat2x4<double,0>
PUBLIC	??0?$tmat2x4@N$0A@@glm@@QAE@NNNNNNNN@Z		; glm::tmat2x4<double,0>::tmat2x4<double,0>
PUBLIC	??0?$tmat2x4@N$0A@@glm@@QAE@ABU?$tvec4@N$0A@@1@0@Z ; glm::tmat2x4<double,0>::tmat2x4<double,0>
PUBLIC	??0?$tmat2x4@N$0A@@glm@@QAE@ABU?$tmat2x2@N$0A@@1@@Z ; glm::tmat2x4<double,0>::tmat2x4<double,0>
PUBLIC	??0?$tmat2x4@N$0A@@glm@@QAE@ABU?$tmat3x3@N$0A@@1@@Z ; glm::tmat2x4<double,0>::tmat2x4<double,0>
PUBLIC	??0?$tmat2x4@N$0A@@glm@@QAE@ABU?$tmat4x4@N$0A@@1@@Z ; glm::tmat2x4<double,0>::tmat2x4<double,0>
PUBLIC	??0?$tmat2x4@N$0A@@glm@@QAE@ABU?$tmat2x3@N$0A@@1@@Z ; glm::tmat2x4<double,0>::tmat2x4<double,0>
PUBLIC	??0?$tmat2x4@N$0A@@glm@@QAE@ABU?$tmat3x2@N$0A@@1@@Z ; glm::tmat2x4<double,0>::tmat2x4<double,0>
PUBLIC	??0?$tmat2x4@N$0A@@glm@@QAE@ABU?$tmat3x4@N$0A@@1@@Z ; glm::tmat2x4<double,0>::tmat2x4<double,0>
PUBLIC	??0?$tmat2x4@N$0A@@glm@@QAE@ABU?$tmat4x2@N$0A@@1@@Z ; glm::tmat2x4<double,0>::tmat2x4<double,0>
PUBLIC	??0?$tmat2x4@N$0A@@glm@@QAE@ABU?$tmat4x3@N$0A@@1@@Z ; glm::tmat2x4<double,0>::tmat2x4<double,0>
PUBLIC	?length@?$tmat2x4@N$0A@@glm@@SAHXZ		; glm::tmat2x4<double,0>::length
PUBLIC	??A?$tmat2x4@N$0A@@glm@@QAEAAU?$tvec4@N$0A@@1@H@Z ; glm::tmat2x4<double,0>::operator[]
PUBLIC	??A?$tmat2x4@N$0A@@glm@@QBEABU?$tvec4@N$0A@@1@H@Z ; glm::tmat2x4<double,0>::operator[]
PUBLIC	??4?$tmat2x4@N$0A@@glm@@QAEAAU01@ABU01@@Z	; glm::tmat2x4<double,0>::operator=
PUBLIC	??E?$tmat2x4@N$0A@@glm@@QAEAAU01@XZ		; glm::tmat2x4<double,0>::operator++
PUBLIC	??F?$tmat2x4@N$0A@@glm@@QAEAAU01@XZ		; glm::tmat2x4<double,0>::operator--
PUBLIC	??E?$tmat2x4@N$0A@@glm@@QAE?AU01@H@Z		; glm::tmat2x4<double,0>::operator++
PUBLIC	??F?$tmat2x4@N$0A@@glm@@QAE?AU01@H@Z		; glm::tmat2x4<double,0>::operator--
PUBLIC	??0?$tmat3x2@M$01@glm@@QAE@XZ			; glm::tmat3x2<float,2>::tmat3x2<float,2>
PUBLIC	??0?$tmat3x2@M$01@glm@@QAE@ABU01@@Z		; glm::tmat3x2<float,2>::tmat3x2<float,2>
PUBLIC	??0?$tmat3x2@M$01@glm@@QAE@W4ctor@1@@Z		; glm::tmat3x2<float,2>::tmat3x2<float,2>
PUBLIC	??0?$tmat3x2@M$01@glm@@QAE@M@Z			; glm::tmat3x2<float,2>::tmat3x2<float,2>
PUBLIC	??0?$tmat3x2@M$01@glm@@QAE@MMMMMM@Z		; glm::tmat3x2<float,2>::tmat3x2<float,2>
PUBLIC	??0?$tmat3x2@M$01@glm@@QAE@ABU?$tvec2@M$01@1@00@Z ; glm::tmat3x2<float,2>::tmat3x2<float,2>
PUBLIC	??0?$tmat3x2@M$01@glm@@QAE@ABU?$tmat2x2@M$01@1@@Z ; glm::tmat3x2<float,2>::tmat3x2<float,2>
PUBLIC	??0?$tmat3x2@M$01@glm@@QAE@ABU?$tmat3x3@M$01@1@@Z ; glm::tmat3x2<float,2>::tmat3x2<float,2>
PUBLIC	??0?$tmat3x2@M$01@glm@@QAE@ABU?$tmat4x4@M$01@1@@Z ; glm::tmat3x2<float,2>::tmat3x2<float,2>
PUBLIC	??0?$tmat3x2@M$01@glm@@QAE@ABU?$tmat2x3@M$01@1@@Z ; glm::tmat3x2<float,2>::tmat3x2<float,2>
PUBLIC	??0?$tmat3x2@M$01@glm@@QAE@ABU?$tmat2x4@M$01@1@@Z ; glm::tmat3x2<float,2>::tmat3x2<float,2>
PUBLIC	??0?$tmat3x2@M$01@glm@@QAE@ABU?$tmat3x4@M$01@1@@Z ; glm::tmat3x2<float,2>::tmat3x2<float,2>
PUBLIC	??0?$tmat3x2@M$01@glm@@QAE@ABU?$tmat4x2@M$01@1@@Z ; glm::tmat3x2<float,2>::tmat3x2<float,2>
PUBLIC	??0?$tmat3x2@M$01@glm@@QAE@ABU?$tmat4x3@M$01@1@@Z ; glm::tmat3x2<float,2>::tmat3x2<float,2>
PUBLIC	?length@?$tmat3x2@M$01@glm@@SAHXZ		; glm::tmat3x2<float,2>::length
PUBLIC	??A?$tmat3x2@M$01@glm@@QAEAAU?$tvec2@M$01@1@H@Z	; glm::tmat3x2<float,2>::operator[]
PUBLIC	??A?$tmat3x2@M$01@glm@@QBEABU?$tvec2@M$01@1@H@Z	; glm::tmat3x2<float,2>::operator[]
PUBLIC	??4?$tmat3x2@M$01@glm@@QAEAAU01@ABU01@@Z	; glm::tmat3x2<float,2>::operator=
PUBLIC	??E?$tmat3x2@M$01@glm@@QAEAAU01@XZ		; glm::tmat3x2<float,2>::operator++
PUBLIC	??F?$tmat3x2@M$01@glm@@QAEAAU01@XZ		; glm::tmat3x2<float,2>::operator--
PUBLIC	??E?$tmat3x2@M$01@glm@@QAE?AU01@H@Z		; glm::tmat3x2<float,2>::operator++
PUBLIC	??F?$tmat3x2@M$01@glm@@QAE?AU01@H@Z		; glm::tmat3x2<float,2>::operator--
PUBLIC	??0?$tmat3x2@N$01@glm@@QAE@XZ			; glm::tmat3x2<double,2>::tmat3x2<double,2>
PUBLIC	??0?$tmat3x2@N$01@glm@@QAE@ABU01@@Z		; glm::tmat3x2<double,2>::tmat3x2<double,2>
PUBLIC	??0?$tmat3x2@N$01@glm@@QAE@W4ctor@1@@Z		; glm::tmat3x2<double,2>::tmat3x2<double,2>
PUBLIC	??0?$tmat3x2@N$01@glm@@QAE@N@Z			; glm::tmat3x2<double,2>::tmat3x2<double,2>
PUBLIC	??0?$tmat3x2@N$01@glm@@QAE@NNNNNN@Z		; glm::tmat3x2<double,2>::tmat3x2<double,2>
PUBLIC	??0?$tmat3x2@N$01@glm@@QAE@ABU?$tvec2@N$01@1@00@Z ; glm::tmat3x2<double,2>::tmat3x2<double,2>
PUBLIC	??0?$tmat3x2@N$01@glm@@QAE@ABU?$tmat2x2@N$01@1@@Z ; glm::tmat3x2<double,2>::tmat3x2<double,2>
PUBLIC	??0?$tmat3x2@N$01@glm@@QAE@ABU?$tmat3x3@N$01@1@@Z ; glm::tmat3x2<double,2>::tmat3x2<double,2>
PUBLIC	??0?$tmat3x2@N$01@glm@@QAE@ABU?$tmat4x4@N$01@1@@Z ; glm::tmat3x2<double,2>::tmat3x2<double,2>
PUBLIC	??0?$tmat3x2@N$01@glm@@QAE@ABU?$tmat2x3@N$01@1@@Z ; glm::tmat3x2<double,2>::tmat3x2<double,2>
PUBLIC	??0?$tmat3x2@N$01@glm@@QAE@ABU?$tmat2x4@N$01@1@@Z ; glm::tmat3x2<double,2>::tmat3x2<double,2>
PUBLIC	??0?$tmat3x2@N$01@glm@@QAE@ABU?$tmat3x4@N$01@1@@Z ; glm::tmat3x2<double,2>::tmat3x2<double,2>
PUBLIC	??0?$tmat3x2@N$01@glm@@QAE@ABU?$tmat4x2@N$01@1@@Z ; glm::tmat3x2<double,2>::tmat3x2<double,2>
PUBLIC	??0?$tmat3x2@N$01@glm@@QAE@ABU?$tmat4x3@N$01@1@@Z ; glm::tmat3x2<double,2>::tmat3x2<double,2>
PUBLIC	?length@?$tmat3x2@N$01@glm@@SAHXZ		; glm::tmat3x2<double,2>::length
PUBLIC	??A?$tmat3x2@N$01@glm@@QAEAAU?$tvec2@N$01@1@H@Z	; glm::tmat3x2<double,2>::operator[]
PUBLIC	??A?$tmat3x2@N$01@glm@@QBEABU?$tvec2@N$01@1@H@Z	; glm::tmat3x2<double,2>::operator[]
PUBLIC	??4?$tmat3x2@N$01@glm@@QAEAAU01@ABU01@@Z	; glm::tmat3x2<double,2>::operator=
PUBLIC	??E?$tmat3x2@N$01@glm@@QAEAAU01@XZ		; glm::tmat3x2<double,2>::operator++
PUBLIC	??F?$tmat3x2@N$01@glm@@QAEAAU01@XZ		; glm::tmat3x2<double,2>::operator--
PUBLIC	??E?$tmat3x2@N$01@glm@@QAE?AU01@H@Z		; glm::tmat3x2<double,2>::operator++
PUBLIC	??F?$tmat3x2@N$01@glm@@QAE?AU01@H@Z		; glm::tmat3x2<double,2>::operator--
PUBLIC	??0?$tmat3x2@M$00@glm@@QAE@XZ			; glm::tmat3x2<float,1>::tmat3x2<float,1>
PUBLIC	??0?$tmat3x2@M$00@glm@@QAE@ABU01@@Z		; glm::tmat3x2<float,1>::tmat3x2<float,1>
PUBLIC	??0?$tmat3x2@M$00@glm@@QAE@W4ctor@1@@Z		; glm::tmat3x2<float,1>::tmat3x2<float,1>
PUBLIC	??0?$tmat3x2@M$00@glm@@QAE@M@Z			; glm::tmat3x2<float,1>::tmat3x2<float,1>
PUBLIC	??0?$tmat3x2@M$00@glm@@QAE@MMMMMM@Z		; glm::tmat3x2<float,1>::tmat3x2<float,1>
PUBLIC	??0?$tmat3x2@M$00@glm@@QAE@ABU?$tvec2@M$00@1@00@Z ; glm::tmat3x2<float,1>::tmat3x2<float,1>
PUBLIC	??0?$tmat3x2@M$00@glm@@QAE@ABU?$tmat2x2@M$00@1@@Z ; glm::tmat3x2<float,1>::tmat3x2<float,1>
PUBLIC	??0?$tmat3x2@M$00@glm@@QAE@ABU?$tmat3x3@M$00@1@@Z ; glm::tmat3x2<float,1>::tmat3x2<float,1>
PUBLIC	??0?$tmat3x2@M$00@glm@@QAE@ABU?$tmat4x4@M$00@1@@Z ; glm::tmat3x2<float,1>::tmat3x2<float,1>
PUBLIC	??0?$tmat3x2@M$00@glm@@QAE@ABU?$tmat2x3@M$00@1@@Z ; glm::tmat3x2<float,1>::tmat3x2<float,1>
PUBLIC	??0?$tmat3x2@M$00@glm@@QAE@ABU?$tmat2x4@M$00@1@@Z ; glm::tmat3x2<float,1>::tmat3x2<float,1>
PUBLIC	??0?$tmat3x2@M$00@glm@@QAE@ABU?$tmat3x4@M$00@1@@Z ; glm::tmat3x2<float,1>::tmat3x2<float,1>
PUBLIC	??0?$tmat3x2@M$00@glm@@QAE@ABU?$tmat4x2@M$00@1@@Z ; glm::tmat3x2<float,1>::tmat3x2<float,1>
PUBLIC	??0?$tmat3x2@M$00@glm@@QAE@ABU?$tmat4x3@M$00@1@@Z ; glm::tmat3x2<float,1>::tmat3x2<float,1>
PUBLIC	?length@?$tmat3x2@M$00@glm@@SAHXZ		; glm::tmat3x2<float,1>::length
PUBLIC	??A?$tmat3x2@M$00@glm@@QAEAAU?$tvec2@M$00@1@H@Z	; glm::tmat3x2<float,1>::operator[]
PUBLIC	??A?$tmat3x2@M$00@glm@@QBEABU?$tvec2@M$00@1@H@Z	; glm::tmat3x2<float,1>::operator[]
PUBLIC	??4?$tmat3x2@M$00@glm@@QAEAAU01@ABU01@@Z	; glm::tmat3x2<float,1>::operator=
PUBLIC	??E?$tmat3x2@M$00@glm@@QAEAAU01@XZ		; glm::tmat3x2<float,1>::operator++
PUBLIC	??F?$tmat3x2@M$00@glm@@QAEAAU01@XZ		; glm::tmat3x2<float,1>::operator--
PUBLIC	??E?$tmat3x2@M$00@glm@@QAE?AU01@H@Z		; glm::tmat3x2<float,1>::operator++
PUBLIC	??F?$tmat3x2@M$00@glm@@QAE?AU01@H@Z		; glm::tmat3x2<float,1>::operator--
PUBLIC	??0?$tmat3x2@N$00@glm@@QAE@XZ			; glm::tmat3x2<double,1>::tmat3x2<double,1>
PUBLIC	??0?$tmat3x2@N$00@glm@@QAE@ABU01@@Z		; glm::tmat3x2<double,1>::tmat3x2<double,1>
PUBLIC	??0?$tmat3x2@N$00@glm@@QAE@W4ctor@1@@Z		; glm::tmat3x2<double,1>::tmat3x2<double,1>
PUBLIC	??0?$tmat3x2@N$00@glm@@QAE@N@Z			; glm::tmat3x2<double,1>::tmat3x2<double,1>
PUBLIC	??0?$tmat3x2@N$00@glm@@QAE@NNNNNN@Z		; glm::tmat3x2<double,1>::tmat3x2<double,1>
PUBLIC	??0?$tmat3x2@N$00@glm@@QAE@ABU?$tvec2@N$00@1@00@Z ; glm::tmat3x2<double,1>::tmat3x2<double,1>
PUBLIC	??0?$tmat3x2@N$00@glm@@QAE@ABU?$tmat2x2@N$00@1@@Z ; glm::tmat3x2<double,1>::tmat3x2<double,1>
PUBLIC	??0?$tmat3x2@N$00@glm@@QAE@ABU?$tmat3x3@N$00@1@@Z ; glm::tmat3x2<double,1>::tmat3x2<double,1>
PUBLIC	??0?$tmat3x2@N$00@glm@@QAE@ABU?$tmat4x4@N$00@1@@Z ; glm::tmat3x2<double,1>::tmat3x2<double,1>
PUBLIC	??0?$tmat3x2@N$00@glm@@QAE@ABU?$tmat2x3@N$00@1@@Z ; glm::tmat3x2<double,1>::tmat3x2<double,1>
PUBLIC	??0?$tmat3x2@N$00@glm@@QAE@ABU?$tmat2x4@N$00@1@@Z ; glm::tmat3x2<double,1>::tmat3x2<double,1>
PUBLIC	??0?$tmat3x2@N$00@glm@@QAE@ABU?$tmat3x4@N$00@1@@Z ; glm::tmat3x2<double,1>::tmat3x2<double,1>
PUBLIC	??0?$tmat3x2@N$00@glm@@QAE@ABU?$tmat4x2@N$00@1@@Z ; glm::tmat3x2<double,1>::tmat3x2<double,1>
PUBLIC	??0?$tmat3x2@N$00@glm@@QAE@ABU?$tmat4x3@N$00@1@@Z ; glm::tmat3x2<double,1>::tmat3x2<double,1>
PUBLIC	?length@?$tmat3x2@N$00@glm@@SAHXZ		; glm::tmat3x2<double,1>::length
PUBLIC	??A?$tmat3x2@N$00@glm@@QAEAAU?$tvec2@N$00@1@H@Z	; glm::tmat3x2<double,1>::operator[]
PUBLIC	??A?$tmat3x2@N$00@glm@@QBEABU?$tvec2@N$00@1@H@Z	; glm::tmat3x2<double,1>::operator[]
PUBLIC	??4?$tmat3x2@N$00@glm@@QAEAAU01@ABU01@@Z	; glm::tmat3x2<double,1>::operator=
PUBLIC	??E?$tmat3x2@N$00@glm@@QAEAAU01@XZ		; glm::tmat3x2<double,1>::operator++
PUBLIC	??F?$tmat3x2@N$00@glm@@QAEAAU01@XZ		; glm::tmat3x2<double,1>::operator--
PUBLIC	??E?$tmat3x2@N$00@glm@@QAE?AU01@H@Z		; glm::tmat3x2<double,1>::operator++
PUBLIC	??F?$tmat3x2@N$00@glm@@QAE?AU01@H@Z		; glm::tmat3x2<double,1>::operator--
PUBLIC	??0?$tmat3x2@M$0A@@glm@@QAE@XZ			; glm::tmat3x2<float,0>::tmat3x2<float,0>
PUBLIC	??0?$tmat3x2@M$0A@@glm@@QAE@ABU01@@Z		; glm::tmat3x2<float,0>::tmat3x2<float,0>
PUBLIC	??0?$tmat3x2@M$0A@@glm@@QAE@W4ctor@1@@Z		; glm::tmat3x2<float,0>::tmat3x2<float,0>
PUBLIC	??0?$tmat3x2@M$0A@@glm@@QAE@M@Z			; glm::tmat3x2<float,0>::tmat3x2<float,0>
PUBLIC	??0?$tmat3x2@M$0A@@glm@@QAE@MMMMMM@Z		; glm::tmat3x2<float,0>::tmat3x2<float,0>
PUBLIC	??0?$tmat3x2@M$0A@@glm@@QAE@ABU?$tvec2@M$0A@@1@00@Z ; glm::tmat3x2<float,0>::tmat3x2<float,0>
PUBLIC	??0?$tmat3x2@M$0A@@glm@@QAE@ABU?$tmat2x2@M$0A@@1@@Z ; glm::tmat3x2<float,0>::tmat3x2<float,0>
PUBLIC	??0?$tmat3x2@M$0A@@glm@@QAE@ABU?$tmat3x3@M$0A@@1@@Z ; glm::tmat3x2<float,0>::tmat3x2<float,0>
PUBLIC	??0?$tmat3x2@M$0A@@glm@@QAE@ABU?$tmat4x4@M$0A@@1@@Z ; glm::tmat3x2<float,0>::tmat3x2<float,0>
PUBLIC	??0?$tmat3x2@M$0A@@glm@@QAE@ABU?$tmat2x3@M$0A@@1@@Z ; glm::tmat3x2<float,0>::tmat3x2<float,0>
PUBLIC	??0?$tmat3x2@M$0A@@glm@@QAE@ABU?$tmat2x4@M$0A@@1@@Z ; glm::tmat3x2<float,0>::tmat3x2<float,0>
PUBLIC	??0?$tmat3x2@M$0A@@glm@@QAE@ABU?$tmat3x4@M$0A@@1@@Z ; glm::tmat3x2<float,0>::tmat3x2<float,0>
PUBLIC	??0?$tmat3x2@M$0A@@glm@@QAE@ABU?$tmat4x2@M$0A@@1@@Z ; glm::tmat3x2<float,0>::tmat3x2<float,0>
PUBLIC	??0?$tmat3x2@M$0A@@glm@@QAE@ABU?$tmat4x3@M$0A@@1@@Z ; glm::tmat3x2<float,0>::tmat3x2<float,0>
PUBLIC	?length@?$tmat3x2@M$0A@@glm@@SAHXZ		; glm::tmat3x2<float,0>::length
PUBLIC	??A?$tmat3x2@M$0A@@glm@@QAEAAU?$tvec2@M$0A@@1@H@Z ; glm::tmat3x2<float,0>::operator[]
PUBLIC	??A?$tmat3x2@M$0A@@glm@@QBEABU?$tvec2@M$0A@@1@H@Z ; glm::tmat3x2<float,0>::operator[]
PUBLIC	??4?$tmat3x2@M$0A@@glm@@QAEAAU01@ABU01@@Z	; glm::tmat3x2<float,0>::operator=
PUBLIC	??E?$tmat3x2@M$0A@@glm@@QAEAAU01@XZ		; glm::tmat3x2<float,0>::operator++
PUBLIC	??F?$tmat3x2@M$0A@@glm@@QAEAAU01@XZ		; glm::tmat3x2<float,0>::operator--
PUBLIC	??E?$tmat3x2@M$0A@@glm@@QAE?AU01@H@Z		; glm::tmat3x2<float,0>::operator++
PUBLIC	??F?$tmat3x2@M$0A@@glm@@QAE?AU01@H@Z		; glm::tmat3x2<float,0>::operator--
PUBLIC	??0?$tmat3x2@N$0A@@glm@@QAE@XZ			; glm::tmat3x2<double,0>::tmat3x2<double,0>
PUBLIC	??0?$tmat3x2@N$0A@@glm@@QAE@ABU01@@Z		; glm::tmat3x2<double,0>::tmat3x2<double,0>
PUBLIC	??0?$tmat3x2@N$0A@@glm@@QAE@W4ctor@1@@Z		; glm::tmat3x2<double,0>::tmat3x2<double,0>
PUBLIC	??0?$tmat3x2@N$0A@@glm@@QAE@N@Z			; glm::tmat3x2<double,0>::tmat3x2<double,0>
PUBLIC	??0?$tmat3x2@N$0A@@glm@@QAE@NNNNNN@Z		; glm::tmat3x2<double,0>::tmat3x2<double,0>
PUBLIC	??0?$tmat3x2@N$0A@@glm@@QAE@ABU?$tvec2@N$0A@@1@00@Z ; glm::tmat3x2<double,0>::tmat3x2<double,0>
PUBLIC	??0?$tmat3x2@N$0A@@glm@@QAE@ABU?$tmat2x2@N$0A@@1@@Z ; glm::tmat3x2<double,0>::tmat3x2<double,0>
PUBLIC	??0?$tmat3x2@N$0A@@glm@@QAE@ABU?$tmat3x3@N$0A@@1@@Z ; glm::tmat3x2<double,0>::tmat3x2<double,0>
PUBLIC	??0?$tmat3x2@N$0A@@glm@@QAE@ABU?$tmat4x4@N$0A@@1@@Z ; glm::tmat3x2<double,0>::tmat3x2<double,0>
PUBLIC	??0?$tmat3x2@N$0A@@glm@@QAE@ABU?$tmat2x3@N$0A@@1@@Z ; glm::tmat3x2<double,0>::tmat3x2<double,0>
PUBLIC	??0?$tmat3x2@N$0A@@glm@@QAE@ABU?$tmat2x4@N$0A@@1@@Z ; glm::tmat3x2<double,0>::tmat3x2<double,0>
PUBLIC	??0?$tmat3x2@N$0A@@glm@@QAE@ABU?$tmat3x4@N$0A@@1@@Z ; glm::tmat3x2<double,0>::tmat3x2<double,0>
PUBLIC	??0?$tmat3x2@N$0A@@glm@@QAE@ABU?$tmat4x2@N$0A@@1@@Z ; glm::tmat3x2<double,0>::tmat3x2<double,0>
PUBLIC	??0?$tmat3x2@N$0A@@glm@@QAE@ABU?$tmat4x3@N$0A@@1@@Z ; glm::tmat3x2<double,0>::tmat3x2<double,0>
PUBLIC	?length@?$tmat3x2@N$0A@@glm@@SAHXZ		; glm::tmat3x2<double,0>::length
PUBLIC	??A?$tmat3x2@N$0A@@glm@@QAEAAU?$tvec2@N$0A@@1@H@Z ; glm::tmat3x2<double,0>::operator[]
PUBLIC	??A?$tmat3x2@N$0A@@glm@@QBEABU?$tvec2@N$0A@@1@H@Z ; glm::tmat3x2<double,0>::operator[]
PUBLIC	??4?$tmat3x2@N$0A@@glm@@QAEAAU01@ABU01@@Z	; glm::tmat3x2<double,0>::operator=
PUBLIC	??E?$tmat3x2@N$0A@@glm@@QAEAAU01@XZ		; glm::tmat3x2<double,0>::operator++
PUBLIC	??F?$tmat3x2@N$0A@@glm@@QAEAAU01@XZ		; glm::tmat3x2<double,0>::operator--
PUBLIC	??E?$tmat3x2@N$0A@@glm@@QAE?AU01@H@Z		; glm::tmat3x2<double,0>::operator++
PUBLIC	??F?$tmat3x2@N$0A@@glm@@QAE?AU01@H@Z		; glm::tmat3x2<double,0>::operator--
PUBLIC	??0?$tmat3x3@M$01@glm@@QAE@XZ			; glm::tmat3x3<float,2>::tmat3x3<float,2>
PUBLIC	??0?$tmat3x3@M$01@glm@@QAE@ABU01@@Z		; glm::tmat3x3<float,2>::tmat3x3<float,2>
PUBLIC	??0?$tmat3x3@M$01@glm@@QAE@W4ctor@1@@Z		; glm::tmat3x3<float,2>::tmat3x3<float,2>
PUBLIC	??0?$tmat3x3@M$01@glm@@QAE@M@Z			; glm::tmat3x3<float,2>::tmat3x3<float,2>
PUBLIC	??0?$tmat3x3@M$01@glm@@QAE@MMMMMMMMM@Z		; glm::tmat3x3<float,2>::tmat3x3<float,2>
PUBLIC	??0?$tmat3x3@M$01@glm@@QAE@ABU?$tvec3@M$01@1@00@Z ; glm::tmat3x3<float,2>::tmat3x3<float,2>
PUBLIC	??0?$tmat3x3@M$01@glm@@QAE@ABU?$tmat2x2@M$01@1@@Z ; glm::tmat3x3<float,2>::tmat3x3<float,2>
PUBLIC	??0?$tmat3x3@M$01@glm@@QAE@ABU?$tmat4x4@M$01@1@@Z ; glm::tmat3x3<float,2>::tmat3x3<float,2>
PUBLIC	??0?$tmat3x3@M$01@glm@@QAE@ABU?$tmat2x3@M$01@1@@Z ; glm::tmat3x3<float,2>::tmat3x3<float,2>
PUBLIC	??0?$tmat3x3@M$01@glm@@QAE@ABU?$tmat3x2@M$01@1@@Z ; glm::tmat3x3<float,2>::tmat3x3<float,2>
PUBLIC	??0?$tmat3x3@M$01@glm@@QAE@ABU?$tmat2x4@M$01@1@@Z ; glm::tmat3x3<float,2>::tmat3x3<float,2>
PUBLIC	??0?$tmat3x3@M$01@glm@@QAE@ABU?$tmat4x2@M$01@1@@Z ; glm::tmat3x3<float,2>::tmat3x3<float,2>
PUBLIC	??0?$tmat3x3@M$01@glm@@QAE@ABU?$tmat3x4@M$01@1@@Z ; glm::tmat3x3<float,2>::tmat3x3<float,2>
PUBLIC	??0?$tmat3x3@M$01@glm@@QAE@ABU?$tmat4x3@M$01@1@@Z ; glm::tmat3x3<float,2>::tmat3x3<float,2>
PUBLIC	?length@?$tmat3x3@M$01@glm@@SAHXZ		; glm::tmat3x3<float,2>::length
PUBLIC	??A?$tmat3x3@M$01@glm@@QAEAAU?$tvec3@M$01@1@H@Z	; glm::tmat3x3<float,2>::operator[]
PUBLIC	??A?$tmat3x3@M$01@glm@@QBEABU?$tvec3@M$01@1@H@Z	; glm::tmat3x3<float,2>::operator[]
PUBLIC	??4?$tmat3x3@M$01@glm@@QAEAAU01@ABU01@@Z	; glm::tmat3x3<float,2>::operator=
PUBLIC	??E?$tmat3x3@M$01@glm@@QAEAAU01@XZ		; glm::tmat3x3<float,2>::operator++
PUBLIC	??F?$tmat3x3@M$01@glm@@QAEAAU01@XZ		; glm::tmat3x3<float,2>::operator--
PUBLIC	??E?$tmat3x3@M$01@glm@@QAE?AU01@H@Z		; glm::tmat3x3<float,2>::operator++
PUBLIC	??F?$tmat3x3@M$01@glm@@QAE?AU01@H@Z		; glm::tmat3x3<float,2>::operator--
PUBLIC	??0?$tmat3x3@N$01@glm@@QAE@XZ			; glm::tmat3x3<double,2>::tmat3x3<double,2>
PUBLIC	??0?$tmat3x3@N$01@glm@@QAE@ABU01@@Z		; glm::tmat3x3<double,2>::tmat3x3<double,2>
PUBLIC	??0?$tmat3x3@N$01@glm@@QAE@W4ctor@1@@Z		; glm::tmat3x3<double,2>::tmat3x3<double,2>
PUBLIC	??0?$tmat3x3@N$01@glm@@QAE@N@Z			; glm::tmat3x3<double,2>::tmat3x3<double,2>
PUBLIC	??0?$tmat3x3@N$01@glm@@QAE@NNNNNNNNN@Z		; glm::tmat3x3<double,2>::tmat3x3<double,2>
PUBLIC	??0?$tmat3x3@N$01@glm@@QAE@ABU?$tvec3@N$01@1@00@Z ; glm::tmat3x3<double,2>::tmat3x3<double,2>
PUBLIC	??0?$tmat3x3@N$01@glm@@QAE@ABU?$tmat2x2@N$01@1@@Z ; glm::tmat3x3<double,2>::tmat3x3<double,2>
PUBLIC	??0?$tmat3x3@N$01@glm@@QAE@ABU?$tmat4x4@N$01@1@@Z ; glm::tmat3x3<double,2>::tmat3x3<double,2>
PUBLIC	??0?$tmat3x3@N$01@glm@@QAE@ABU?$tmat2x3@N$01@1@@Z ; glm::tmat3x3<double,2>::tmat3x3<double,2>
PUBLIC	??0?$tmat3x3@N$01@glm@@QAE@ABU?$tmat3x2@N$01@1@@Z ; glm::tmat3x3<double,2>::tmat3x3<double,2>
PUBLIC	??0?$tmat3x3@N$01@glm@@QAE@ABU?$tmat2x4@N$01@1@@Z ; glm::tmat3x3<double,2>::tmat3x3<double,2>
PUBLIC	??0?$tmat3x3@N$01@glm@@QAE@ABU?$tmat4x2@N$01@1@@Z ; glm::tmat3x3<double,2>::tmat3x3<double,2>
PUBLIC	??0?$tmat3x3@N$01@glm@@QAE@ABU?$tmat3x4@N$01@1@@Z ; glm::tmat3x3<double,2>::tmat3x3<double,2>
PUBLIC	??0?$tmat3x3@N$01@glm@@QAE@ABU?$tmat4x3@N$01@1@@Z ; glm::tmat3x3<double,2>::tmat3x3<double,2>
PUBLIC	?length@?$tmat3x3@N$01@glm@@SAHXZ		; glm::tmat3x3<double,2>::length
PUBLIC	??A?$tmat3x3@N$01@glm@@QAEAAU?$tvec3@N$01@1@H@Z	; glm::tmat3x3<double,2>::operator[]
PUBLIC	??A?$tmat3x3@N$01@glm@@QBEABU?$tvec3@N$01@1@H@Z	; glm::tmat3x3<double,2>::operator[]
PUBLIC	??4?$tmat3x3@N$01@glm@@QAEAAU01@ABU01@@Z	; glm::tmat3x3<double,2>::operator=
PUBLIC	??E?$tmat3x3@N$01@glm@@QAEAAU01@XZ		; glm::tmat3x3<double,2>::operator++
PUBLIC	??F?$tmat3x3@N$01@glm@@QAEAAU01@XZ		; glm::tmat3x3<double,2>::operator--
PUBLIC	??E?$tmat3x3@N$01@glm@@QAE?AU01@H@Z		; glm::tmat3x3<double,2>::operator++
PUBLIC	??F?$tmat3x3@N$01@glm@@QAE?AU01@H@Z		; glm::tmat3x3<double,2>::operator--
PUBLIC	??0?$tmat3x3@M$00@glm@@QAE@XZ			; glm::tmat3x3<float,1>::tmat3x3<float,1>
PUBLIC	??0?$tmat3x3@M$00@glm@@QAE@ABU01@@Z		; glm::tmat3x3<float,1>::tmat3x3<float,1>
PUBLIC	??0?$tmat3x3@M$00@glm@@QAE@W4ctor@1@@Z		; glm::tmat3x3<float,1>::tmat3x3<float,1>
PUBLIC	??0?$tmat3x3@M$00@glm@@QAE@M@Z			; glm::tmat3x3<float,1>::tmat3x3<float,1>
PUBLIC	??0?$tmat3x3@M$00@glm@@QAE@MMMMMMMMM@Z		; glm::tmat3x3<float,1>::tmat3x3<float,1>
PUBLIC	??0?$tmat3x3@M$00@glm@@QAE@ABU?$tvec3@M$00@1@00@Z ; glm::tmat3x3<float,1>::tmat3x3<float,1>
PUBLIC	??0?$tmat3x3@M$00@glm@@QAE@ABU?$tmat2x2@M$00@1@@Z ; glm::tmat3x3<float,1>::tmat3x3<float,1>
PUBLIC	??0?$tmat3x3@M$00@glm@@QAE@ABU?$tmat4x4@M$00@1@@Z ; glm::tmat3x3<float,1>::tmat3x3<float,1>
PUBLIC	??0?$tmat3x3@M$00@glm@@QAE@ABU?$tmat2x3@M$00@1@@Z ; glm::tmat3x3<float,1>::tmat3x3<float,1>
PUBLIC	??0?$tmat3x3@M$00@glm@@QAE@ABU?$tmat3x2@M$00@1@@Z ; glm::tmat3x3<float,1>::tmat3x3<float,1>
PUBLIC	??0?$tmat3x3@M$00@glm@@QAE@ABU?$tmat2x4@M$00@1@@Z ; glm::tmat3x3<float,1>::tmat3x3<float,1>
PUBLIC	??0?$tmat3x3@M$00@glm@@QAE@ABU?$tmat4x2@M$00@1@@Z ; glm::tmat3x3<float,1>::tmat3x3<float,1>
PUBLIC	??0?$tmat3x3@M$00@glm@@QAE@ABU?$tmat3x4@M$00@1@@Z ; glm::tmat3x3<float,1>::tmat3x3<float,1>
PUBLIC	??0?$tmat3x3@M$00@glm@@QAE@ABU?$tmat4x3@M$00@1@@Z ; glm::tmat3x3<float,1>::tmat3x3<float,1>
PUBLIC	?length@?$tmat3x3@M$00@glm@@SAHXZ		; glm::tmat3x3<float,1>::length
PUBLIC	??A?$tmat3x3@M$00@glm@@QAEAAU?$tvec3@M$00@1@H@Z	; glm::tmat3x3<float,1>::operator[]
PUBLIC	??A?$tmat3x3@M$00@glm@@QBEABU?$tvec3@M$00@1@H@Z	; glm::tmat3x3<float,1>::operator[]
PUBLIC	??4?$tmat3x3@M$00@glm@@QAEAAU01@ABU01@@Z	; glm::tmat3x3<float,1>::operator=
PUBLIC	??E?$tmat3x3@M$00@glm@@QAEAAU01@XZ		; glm::tmat3x3<float,1>::operator++
PUBLIC	??F?$tmat3x3@M$00@glm@@QAEAAU01@XZ		; glm::tmat3x3<float,1>::operator--
PUBLIC	??E?$tmat3x3@M$00@glm@@QAE?AU01@H@Z		; glm::tmat3x3<float,1>::operator++
PUBLIC	??F?$tmat3x3@M$00@glm@@QAE?AU01@H@Z		; glm::tmat3x3<float,1>::operator--
PUBLIC	??0?$tmat3x3@N$00@glm@@QAE@XZ			; glm::tmat3x3<double,1>::tmat3x3<double,1>
PUBLIC	??0?$tmat3x3@N$00@glm@@QAE@ABU01@@Z		; glm::tmat3x3<double,1>::tmat3x3<double,1>
PUBLIC	??0?$tmat3x3@N$00@glm@@QAE@W4ctor@1@@Z		; glm::tmat3x3<double,1>::tmat3x3<double,1>
PUBLIC	??0?$tmat3x3@N$00@glm@@QAE@N@Z			; glm::tmat3x3<double,1>::tmat3x3<double,1>
PUBLIC	??0?$tmat3x3@N$00@glm@@QAE@NNNNNNNNN@Z		; glm::tmat3x3<double,1>::tmat3x3<double,1>
PUBLIC	??0?$tmat3x3@N$00@glm@@QAE@ABU?$tvec3@N$00@1@00@Z ; glm::tmat3x3<double,1>::tmat3x3<double,1>
PUBLIC	??0?$tmat3x3@N$00@glm@@QAE@ABU?$tmat2x2@N$00@1@@Z ; glm::tmat3x3<double,1>::tmat3x3<double,1>
PUBLIC	??0?$tmat3x3@N$00@glm@@QAE@ABU?$tmat4x4@N$00@1@@Z ; glm::tmat3x3<double,1>::tmat3x3<double,1>
PUBLIC	??0?$tmat3x3@N$00@glm@@QAE@ABU?$tmat2x3@N$00@1@@Z ; glm::tmat3x3<double,1>::tmat3x3<double,1>
PUBLIC	??0?$tmat3x3@N$00@glm@@QAE@ABU?$tmat3x2@N$00@1@@Z ; glm::tmat3x3<double,1>::tmat3x3<double,1>
PUBLIC	??0?$tmat3x3@N$00@glm@@QAE@ABU?$tmat2x4@N$00@1@@Z ; glm::tmat3x3<double,1>::tmat3x3<double,1>
PUBLIC	??0?$tmat3x3@N$00@glm@@QAE@ABU?$tmat4x2@N$00@1@@Z ; glm::tmat3x3<double,1>::tmat3x3<double,1>
PUBLIC	??0?$tmat3x3@N$00@glm@@QAE@ABU?$tmat3x4@N$00@1@@Z ; glm::tmat3x3<double,1>::tmat3x3<double,1>
PUBLIC	??0?$tmat3x3@N$00@glm@@QAE@ABU?$tmat4x3@N$00@1@@Z ; glm::tmat3x3<double,1>::tmat3x3<double,1>
PUBLIC	?length@?$tmat3x3@N$00@glm@@SAHXZ		; glm::tmat3x3<double,1>::length
PUBLIC	??A?$tmat3x3@N$00@glm@@QAEAAU?$tvec3@N$00@1@H@Z	; glm::tmat3x3<double,1>::operator[]
PUBLIC	??A?$tmat3x3@N$00@glm@@QBEABU?$tvec3@N$00@1@H@Z	; glm::tmat3x3<double,1>::operator[]
PUBLIC	??4?$tmat3x3@N$00@glm@@QAEAAU01@ABU01@@Z	; glm::tmat3x3<double,1>::operator=
PUBLIC	??E?$tmat3x3@N$00@glm@@QAEAAU01@XZ		; glm::tmat3x3<double,1>::operator++
PUBLIC	??F?$tmat3x3@N$00@glm@@QAEAAU01@XZ		; glm::tmat3x3<double,1>::operator--
PUBLIC	??E?$tmat3x3@N$00@glm@@QAE?AU01@H@Z		; glm::tmat3x3<double,1>::operator++
PUBLIC	??F?$tmat3x3@N$00@glm@@QAE?AU01@H@Z		; glm::tmat3x3<double,1>::operator--
PUBLIC	??0?$tmat3x3@M$0A@@glm@@QAE@XZ			; glm::tmat3x3<float,0>::tmat3x3<float,0>
PUBLIC	??0?$tmat3x3@M$0A@@glm@@QAE@ABU01@@Z		; glm::tmat3x3<float,0>::tmat3x3<float,0>
PUBLIC	??0?$tmat3x3@M$0A@@glm@@QAE@W4ctor@1@@Z		; glm::tmat3x3<float,0>::tmat3x3<float,0>
PUBLIC	??0?$tmat3x3@M$0A@@glm@@QAE@M@Z			; glm::tmat3x3<float,0>::tmat3x3<float,0>
PUBLIC	??0?$tmat3x3@M$0A@@glm@@QAE@MMMMMMMMM@Z		; glm::tmat3x3<float,0>::tmat3x3<float,0>
PUBLIC	??0?$tmat3x3@M$0A@@glm@@QAE@ABU?$tvec3@M$0A@@1@00@Z ; glm::tmat3x3<float,0>::tmat3x3<float,0>
PUBLIC	??0?$tmat3x3@M$0A@@glm@@QAE@ABU?$tmat2x2@M$0A@@1@@Z ; glm::tmat3x3<float,0>::tmat3x3<float,0>
PUBLIC	??0?$tmat3x3@M$0A@@glm@@QAE@ABU?$tmat4x4@M$0A@@1@@Z ; glm::tmat3x3<float,0>::tmat3x3<float,0>
PUBLIC	??0?$tmat3x3@M$0A@@glm@@QAE@ABU?$tmat2x3@M$0A@@1@@Z ; glm::tmat3x3<float,0>::tmat3x3<float,0>
PUBLIC	??0?$tmat3x3@M$0A@@glm@@QAE@ABU?$tmat3x2@M$0A@@1@@Z ; glm::tmat3x3<float,0>::tmat3x3<float,0>
PUBLIC	??0?$tmat3x3@M$0A@@glm@@QAE@ABU?$tmat2x4@M$0A@@1@@Z ; glm::tmat3x3<float,0>::tmat3x3<float,0>
PUBLIC	??0?$tmat3x3@M$0A@@glm@@QAE@ABU?$tmat4x2@M$0A@@1@@Z ; glm::tmat3x3<float,0>::tmat3x3<float,0>
PUBLIC	??0?$tmat3x3@M$0A@@glm@@QAE@ABU?$tmat3x4@M$0A@@1@@Z ; glm::tmat3x3<float,0>::tmat3x3<float,0>
PUBLIC	??0?$tmat3x3@M$0A@@glm@@QAE@ABU?$tmat4x3@M$0A@@1@@Z ; glm::tmat3x3<float,0>::tmat3x3<float,0>
PUBLIC	?length@?$tmat3x3@M$0A@@glm@@SAHXZ		; glm::tmat3x3<float,0>::length
PUBLIC	??A?$tmat3x3@M$0A@@glm@@QAEAAU?$tvec3@M$0A@@1@H@Z ; glm::tmat3x3<float,0>::operator[]
PUBLIC	??A?$tmat3x3@M$0A@@glm@@QBEABU?$tvec3@M$0A@@1@H@Z ; glm::tmat3x3<float,0>::operator[]
PUBLIC	??4?$tmat3x3@M$0A@@glm@@QAEAAU01@ABU01@@Z	; glm::tmat3x3<float,0>::operator=
PUBLIC	??E?$tmat3x3@M$0A@@glm@@QAEAAU01@XZ		; glm::tmat3x3<float,0>::operator++
PUBLIC	??F?$tmat3x3@M$0A@@glm@@QAEAAU01@XZ		; glm::tmat3x3<float,0>::operator--
PUBLIC	??E?$tmat3x3@M$0A@@glm@@QAE?AU01@H@Z		; glm::tmat3x3<float,0>::operator++
PUBLIC	??F?$tmat3x3@M$0A@@glm@@QAE?AU01@H@Z		; glm::tmat3x3<float,0>::operator--
PUBLIC	??0?$tmat3x3@N$0A@@glm@@QAE@XZ			; glm::tmat3x3<double,0>::tmat3x3<double,0>
PUBLIC	??0?$tmat3x3@N$0A@@glm@@QAE@ABU01@@Z		; glm::tmat3x3<double,0>::tmat3x3<double,0>
PUBLIC	??0?$tmat3x3@N$0A@@glm@@QAE@W4ctor@1@@Z		; glm::tmat3x3<double,0>::tmat3x3<double,0>
PUBLIC	??0?$tmat3x3@N$0A@@glm@@QAE@N@Z			; glm::tmat3x3<double,0>::tmat3x3<double,0>
PUBLIC	??0?$tmat3x3@N$0A@@glm@@QAE@NNNNNNNNN@Z		; glm::tmat3x3<double,0>::tmat3x3<double,0>
PUBLIC	??0?$tmat3x3@N$0A@@glm@@QAE@ABU?$tvec3@N$0A@@1@00@Z ; glm::tmat3x3<double,0>::tmat3x3<double,0>
PUBLIC	??0?$tmat3x3@N$0A@@glm@@QAE@ABU?$tmat2x2@N$0A@@1@@Z ; glm::tmat3x3<double,0>::tmat3x3<double,0>
PUBLIC	??0?$tmat3x3@N$0A@@glm@@QAE@ABU?$tmat4x4@N$0A@@1@@Z ; glm::tmat3x3<double,0>::tmat3x3<double,0>
PUBLIC	??0?$tmat3x3@N$0A@@glm@@QAE@ABU?$tmat2x3@N$0A@@1@@Z ; glm::tmat3x3<double,0>::tmat3x3<double,0>
PUBLIC	??0?$tmat3x3@N$0A@@glm@@QAE@ABU?$tmat3x2@N$0A@@1@@Z ; glm::tmat3x3<double,0>::tmat3x3<double,0>
PUBLIC	??0?$tmat3x3@N$0A@@glm@@QAE@ABU?$tmat2x4@N$0A@@1@@Z ; glm::tmat3x3<double,0>::tmat3x3<double,0>
PUBLIC	??0?$tmat3x3@N$0A@@glm@@QAE@ABU?$tmat4x2@N$0A@@1@@Z ; glm::tmat3x3<double,0>::tmat3x3<double,0>
PUBLIC	??0?$tmat3x3@N$0A@@glm@@QAE@ABU?$tmat3x4@N$0A@@1@@Z ; glm::tmat3x3<double,0>::tmat3x3<double,0>
PUBLIC	??0?$tmat3x3@N$0A@@glm@@QAE@ABU?$tmat4x3@N$0A@@1@@Z ; glm::tmat3x3<double,0>::tmat3x3<double,0>
PUBLIC	?length@?$tmat3x3@N$0A@@glm@@SAHXZ		; glm::tmat3x3<double,0>::length
PUBLIC	??A?$tmat3x3@N$0A@@glm@@QAEAAU?$tvec3@N$0A@@1@H@Z ; glm::tmat3x3<double,0>::operator[]
PUBLIC	??A?$tmat3x3@N$0A@@glm@@QBEABU?$tvec3@N$0A@@1@H@Z ; glm::tmat3x3<double,0>::operator[]
PUBLIC	??4?$tmat3x3@N$0A@@glm@@QAEAAU01@ABU01@@Z	; glm::tmat3x3<double,0>::operator=
PUBLIC	??E?$tmat3x3@N$0A@@glm@@QAEAAU01@XZ		; glm::tmat3x3<double,0>::operator++
PUBLIC	??F?$tmat3x3@N$0A@@glm@@QAEAAU01@XZ		; glm::tmat3x3<double,0>::operator--
PUBLIC	??E?$tmat3x3@N$0A@@glm@@QAE?AU01@H@Z		; glm::tmat3x3<double,0>::operator++
PUBLIC	??F?$tmat3x3@N$0A@@glm@@QAE?AU01@H@Z		; glm::tmat3x3<double,0>::operator--
PUBLIC	??0?$tmat3x4@M$01@glm@@QAE@XZ			; glm::tmat3x4<float,2>::tmat3x4<float,2>
PUBLIC	??0?$tmat3x4@M$01@glm@@QAE@ABU01@@Z		; glm::tmat3x4<float,2>::tmat3x4<float,2>
PUBLIC	??0?$tmat3x4@M$01@glm@@QAE@W4ctor@1@@Z		; glm::tmat3x4<float,2>::tmat3x4<float,2>
PUBLIC	??0?$tmat3x4@M$01@glm@@QAE@M@Z			; glm::tmat3x4<float,2>::tmat3x4<float,2>
PUBLIC	??0?$tmat3x4@M$01@glm@@QAE@MMMMMMMMMMMM@Z	; glm::tmat3x4<float,2>::tmat3x4<float,2>
PUBLIC	??0?$tmat3x4@M$01@glm@@QAE@ABU?$tvec4@M$01@1@00@Z ; glm::tmat3x4<float,2>::tmat3x4<float,2>
PUBLIC	??0?$tmat3x4@M$01@glm@@QAE@ABU?$tmat2x2@M$01@1@@Z ; glm::tmat3x4<float,2>::tmat3x4<float,2>
PUBLIC	??0?$tmat3x4@M$01@glm@@QAE@ABU?$tmat3x3@M$01@1@@Z ; glm::tmat3x4<float,2>::tmat3x4<float,2>
PUBLIC	??0?$tmat3x4@M$01@glm@@QAE@ABU?$tmat4x4@M$01@1@@Z ; glm::tmat3x4<float,2>::tmat3x4<float,2>
PUBLIC	??0?$tmat3x4@M$01@glm@@QAE@ABU?$tmat2x3@M$01@1@@Z ; glm::tmat3x4<float,2>::tmat3x4<float,2>
PUBLIC	??0?$tmat3x4@M$01@glm@@QAE@ABU?$tmat3x2@M$01@1@@Z ; glm::tmat3x4<float,2>::tmat3x4<float,2>
PUBLIC	??0?$tmat3x4@M$01@glm@@QAE@ABU?$tmat2x4@M$01@1@@Z ; glm::tmat3x4<float,2>::tmat3x4<float,2>
PUBLIC	??0?$tmat3x4@M$01@glm@@QAE@ABU?$tmat4x2@M$01@1@@Z ; glm::tmat3x4<float,2>::tmat3x4<float,2>
PUBLIC	??0?$tmat3x4@M$01@glm@@QAE@ABU?$tmat4x3@M$01@1@@Z ; glm::tmat3x4<float,2>::tmat3x4<float,2>
PUBLIC	?length@?$tmat3x4@M$01@glm@@SAHXZ		; glm::tmat3x4<float,2>::length
PUBLIC	??A?$tmat3x4@M$01@glm@@QAEAAU?$tvec4@M$01@1@H@Z	; glm::tmat3x4<float,2>::operator[]
PUBLIC	??A?$tmat3x4@M$01@glm@@QBEABU?$tvec4@M$01@1@H@Z	; glm::tmat3x4<float,2>::operator[]
PUBLIC	??4?$tmat3x4@M$01@glm@@QAEAAU01@ABU01@@Z	; glm::tmat3x4<float,2>::operator=
PUBLIC	??E?$tmat3x4@M$01@glm@@QAEAAU01@XZ		; glm::tmat3x4<float,2>::operator++
PUBLIC	??F?$tmat3x4@M$01@glm@@QAEAAU01@XZ		; glm::tmat3x4<float,2>::operator--
PUBLIC	??E?$tmat3x4@M$01@glm@@QAE?AU01@H@Z		; glm::tmat3x4<float,2>::operator++
PUBLIC	??F?$tmat3x4@M$01@glm@@QAE?AU01@H@Z		; glm::tmat3x4<float,2>::operator--
PUBLIC	??0?$tmat3x4@N$01@glm@@QAE@XZ			; glm::tmat3x4<double,2>::tmat3x4<double,2>
PUBLIC	??0?$tmat3x4@N$01@glm@@QAE@ABU01@@Z		; glm::tmat3x4<double,2>::tmat3x4<double,2>
PUBLIC	??0?$tmat3x4@N$01@glm@@QAE@W4ctor@1@@Z		; glm::tmat3x4<double,2>::tmat3x4<double,2>
PUBLIC	??0?$tmat3x4@N$01@glm@@QAE@N@Z			; glm::tmat3x4<double,2>::tmat3x4<double,2>
PUBLIC	??0?$tmat3x4@N$01@glm@@QAE@NNNNNNNNNNNN@Z	; glm::tmat3x4<double,2>::tmat3x4<double,2>
PUBLIC	??0?$tmat3x4@N$01@glm@@QAE@ABU?$tvec4@N$01@1@00@Z ; glm::tmat3x4<double,2>::tmat3x4<double,2>
PUBLIC	??0?$tmat3x4@N$01@glm@@QAE@ABU?$tmat2x2@N$01@1@@Z ; glm::tmat3x4<double,2>::tmat3x4<double,2>
PUBLIC	??0?$tmat3x4@N$01@glm@@QAE@ABU?$tmat3x3@N$01@1@@Z ; glm::tmat3x4<double,2>::tmat3x4<double,2>
PUBLIC	??0?$tmat3x4@N$01@glm@@QAE@ABU?$tmat4x4@N$01@1@@Z ; glm::tmat3x4<double,2>::tmat3x4<double,2>
PUBLIC	??0?$tmat3x4@N$01@glm@@QAE@ABU?$tmat2x3@N$01@1@@Z ; glm::tmat3x4<double,2>::tmat3x4<double,2>
PUBLIC	??0?$tmat3x4@N$01@glm@@QAE@ABU?$tmat3x2@N$01@1@@Z ; glm::tmat3x4<double,2>::tmat3x4<double,2>
PUBLIC	??0?$tmat3x4@N$01@glm@@QAE@ABU?$tmat2x4@N$01@1@@Z ; glm::tmat3x4<double,2>::tmat3x4<double,2>
PUBLIC	??0?$tmat3x4@N$01@glm@@QAE@ABU?$tmat4x2@N$01@1@@Z ; glm::tmat3x4<double,2>::tmat3x4<double,2>
PUBLIC	??0?$tmat3x4@N$01@glm@@QAE@ABU?$tmat4x3@N$01@1@@Z ; glm::tmat3x4<double,2>::tmat3x4<double,2>
PUBLIC	?length@?$tmat3x4@N$01@glm@@SAHXZ		; glm::tmat3x4<double,2>::length
PUBLIC	??A?$tmat3x4@N$01@glm@@QAEAAU?$tvec4@N$01@1@H@Z	; glm::tmat3x4<double,2>::operator[]
PUBLIC	??A?$tmat3x4@N$01@glm@@QBEABU?$tvec4@N$01@1@H@Z	; glm::tmat3x4<double,2>::operator[]
PUBLIC	??4?$tmat3x4@N$01@glm@@QAEAAU01@ABU01@@Z	; glm::tmat3x4<double,2>::operator=
PUBLIC	??E?$tmat3x4@N$01@glm@@QAEAAU01@XZ		; glm::tmat3x4<double,2>::operator++
PUBLIC	??F?$tmat3x4@N$01@glm@@QAEAAU01@XZ		; glm::tmat3x4<double,2>::operator--
PUBLIC	??E?$tmat3x4@N$01@glm@@QAE?AU01@H@Z		; glm::tmat3x4<double,2>::operator++
PUBLIC	??F?$tmat3x4@N$01@glm@@QAE?AU01@H@Z		; glm::tmat3x4<double,2>::operator--
PUBLIC	??0?$tmat3x4@M$00@glm@@QAE@XZ			; glm::tmat3x4<float,1>::tmat3x4<float,1>
PUBLIC	??0?$tmat3x4@M$00@glm@@QAE@ABU01@@Z		; glm::tmat3x4<float,1>::tmat3x4<float,1>
PUBLIC	??0?$tmat3x4@M$00@glm@@QAE@W4ctor@1@@Z		; glm::tmat3x4<float,1>::tmat3x4<float,1>
PUBLIC	??0?$tmat3x4@M$00@glm@@QAE@M@Z			; glm::tmat3x4<float,1>::tmat3x4<float,1>
PUBLIC	??0?$tmat3x4@M$00@glm@@QAE@MMMMMMMMMMMM@Z	; glm::tmat3x4<float,1>::tmat3x4<float,1>
PUBLIC	??0?$tmat3x4@M$00@glm@@QAE@ABU?$tvec4@M$00@1@00@Z ; glm::tmat3x4<float,1>::tmat3x4<float,1>
PUBLIC	??0?$tmat3x4@M$00@glm@@QAE@ABU?$tmat2x2@M$00@1@@Z ; glm::tmat3x4<float,1>::tmat3x4<float,1>
PUBLIC	??0?$tmat3x4@M$00@glm@@QAE@ABU?$tmat3x3@M$00@1@@Z ; glm::tmat3x4<float,1>::tmat3x4<float,1>
PUBLIC	??0?$tmat3x4@M$00@glm@@QAE@ABU?$tmat4x4@M$00@1@@Z ; glm::tmat3x4<float,1>::tmat3x4<float,1>
PUBLIC	??0?$tmat3x4@M$00@glm@@QAE@ABU?$tmat2x3@M$00@1@@Z ; glm::tmat3x4<float,1>::tmat3x4<float,1>
PUBLIC	??0?$tmat3x4@M$00@glm@@QAE@ABU?$tmat3x2@M$00@1@@Z ; glm::tmat3x4<float,1>::tmat3x4<float,1>
PUBLIC	??0?$tmat3x4@M$00@glm@@QAE@ABU?$tmat2x4@M$00@1@@Z ; glm::tmat3x4<float,1>::tmat3x4<float,1>
PUBLIC	??0?$tmat3x4@M$00@glm@@QAE@ABU?$tmat4x2@M$00@1@@Z ; glm::tmat3x4<float,1>::tmat3x4<float,1>
PUBLIC	??0?$tmat3x4@M$00@glm@@QAE@ABU?$tmat4x3@M$00@1@@Z ; glm::tmat3x4<float,1>::tmat3x4<float,1>
PUBLIC	?length@?$tmat3x4@M$00@glm@@SAHXZ		; glm::tmat3x4<float,1>::length
PUBLIC	??A?$tmat3x4@M$00@glm@@QAEAAU?$tvec4@M$00@1@H@Z	; glm::tmat3x4<float,1>::operator[]
PUBLIC	??A?$tmat3x4@M$00@glm@@QBEABU?$tvec4@M$00@1@H@Z	; glm::tmat3x4<float,1>::operator[]
PUBLIC	??4?$tmat3x4@M$00@glm@@QAEAAU01@ABU01@@Z	; glm::tmat3x4<float,1>::operator=
PUBLIC	??E?$tmat3x4@M$00@glm@@QAEAAU01@XZ		; glm::tmat3x4<float,1>::operator++
PUBLIC	??F?$tmat3x4@M$00@glm@@QAEAAU01@XZ		; glm::tmat3x4<float,1>::operator--
PUBLIC	??E?$tmat3x4@M$00@glm@@QAE?AU01@H@Z		; glm::tmat3x4<float,1>::operator++
PUBLIC	??F?$tmat3x4@M$00@glm@@QAE?AU01@H@Z		; glm::tmat3x4<float,1>::operator--
PUBLIC	??0?$tmat3x4@N$00@glm@@QAE@XZ			; glm::tmat3x4<double,1>::tmat3x4<double,1>
PUBLIC	??0?$tmat3x4@N$00@glm@@QAE@ABU01@@Z		; glm::tmat3x4<double,1>::tmat3x4<double,1>
PUBLIC	??0?$tmat3x4@N$00@glm@@QAE@W4ctor@1@@Z		; glm::tmat3x4<double,1>::tmat3x4<double,1>
PUBLIC	??0?$tmat3x4@N$00@glm@@QAE@N@Z			; glm::tmat3x4<double,1>::tmat3x4<double,1>
PUBLIC	??0?$tmat3x4@N$00@glm@@QAE@NNNNNNNNNNNN@Z	; glm::tmat3x4<double,1>::tmat3x4<double,1>
PUBLIC	??0?$tmat3x4@N$00@glm@@QAE@ABU?$tvec4@N$00@1@00@Z ; glm::tmat3x4<double,1>::tmat3x4<double,1>
PUBLIC	??0?$tmat3x4@N$00@glm@@QAE@ABU?$tmat2x2@N$00@1@@Z ; glm::tmat3x4<double,1>::tmat3x4<double,1>
PUBLIC	??0?$tmat3x4@N$00@glm@@QAE@ABU?$tmat3x3@N$00@1@@Z ; glm::tmat3x4<double,1>::tmat3x4<double,1>
PUBLIC	??0?$tmat3x4@N$00@glm@@QAE@ABU?$tmat4x4@N$00@1@@Z ; glm::tmat3x4<double,1>::tmat3x4<double,1>
PUBLIC	??0?$tmat3x4@N$00@glm@@QAE@ABU?$tmat2x3@N$00@1@@Z ; glm::tmat3x4<double,1>::tmat3x4<double,1>
PUBLIC	??0?$tmat3x4@N$00@glm@@QAE@ABU?$tmat3x2@N$00@1@@Z ; glm::tmat3x4<double,1>::tmat3x4<double,1>
PUBLIC	??0?$tmat3x4@N$00@glm@@QAE@ABU?$tmat2x4@N$00@1@@Z ; glm::tmat3x4<double,1>::tmat3x4<double,1>
PUBLIC	??0?$tmat3x4@N$00@glm@@QAE@ABU?$tmat4x2@N$00@1@@Z ; glm::tmat3x4<double,1>::tmat3x4<double,1>
PUBLIC	??0?$tmat3x4@N$00@glm@@QAE@ABU?$tmat4x3@N$00@1@@Z ; glm::tmat3x4<double,1>::tmat3x4<double,1>
PUBLIC	?length@?$tmat3x4@N$00@glm@@SAHXZ		; glm::tmat3x4<double,1>::length
PUBLIC	??A?$tmat3x4@N$00@glm@@QAEAAU?$tvec4@N$00@1@H@Z	; glm::tmat3x4<double,1>::operator[]
PUBLIC	??A?$tmat3x4@N$00@glm@@QBEABU?$tvec4@N$00@1@H@Z	; glm::tmat3x4<double,1>::operator[]
PUBLIC	??4?$tmat3x4@N$00@glm@@QAEAAU01@ABU01@@Z	; glm::tmat3x4<double,1>::operator=
PUBLIC	??E?$tmat3x4@N$00@glm@@QAEAAU01@XZ		; glm::tmat3x4<double,1>::operator++
PUBLIC	??F?$tmat3x4@N$00@glm@@QAEAAU01@XZ		; glm::tmat3x4<double,1>::operator--
PUBLIC	??E?$tmat3x4@N$00@glm@@QAE?AU01@H@Z		; glm::tmat3x4<double,1>::operator++
PUBLIC	??F?$tmat3x4@N$00@glm@@QAE?AU01@H@Z		; glm::tmat3x4<double,1>::operator--
PUBLIC	??0?$tmat3x4@M$0A@@glm@@QAE@XZ			; glm::tmat3x4<float,0>::tmat3x4<float,0>
PUBLIC	??0?$tmat3x4@M$0A@@glm@@QAE@ABU01@@Z		; glm::tmat3x4<float,0>::tmat3x4<float,0>
PUBLIC	??0?$tmat3x4@M$0A@@glm@@QAE@W4ctor@1@@Z		; glm::tmat3x4<float,0>::tmat3x4<float,0>
PUBLIC	??0?$tmat3x4@M$0A@@glm@@QAE@M@Z			; glm::tmat3x4<float,0>::tmat3x4<float,0>
PUBLIC	??0?$tmat3x4@M$0A@@glm@@QAE@MMMMMMMMMMMM@Z	; glm::tmat3x4<float,0>::tmat3x4<float,0>
PUBLIC	??0?$tmat3x4@M$0A@@glm@@QAE@ABU?$tvec4@M$0A@@1@00@Z ; glm::tmat3x4<float,0>::tmat3x4<float,0>
PUBLIC	??0?$tmat3x4@M$0A@@glm@@QAE@ABU?$tmat2x2@M$0A@@1@@Z ; glm::tmat3x4<float,0>::tmat3x4<float,0>
PUBLIC	??0?$tmat3x4@M$0A@@glm@@QAE@ABU?$tmat3x3@M$0A@@1@@Z ; glm::tmat3x4<float,0>::tmat3x4<float,0>
PUBLIC	??0?$tmat3x4@M$0A@@glm@@QAE@ABU?$tmat4x4@M$0A@@1@@Z ; glm::tmat3x4<float,0>::tmat3x4<float,0>
PUBLIC	??0?$tmat3x4@M$0A@@glm@@QAE@ABU?$tmat2x3@M$0A@@1@@Z ; glm::tmat3x4<float,0>::tmat3x4<float,0>
PUBLIC	??0?$tmat3x4@M$0A@@glm@@QAE@ABU?$tmat3x2@M$0A@@1@@Z ; glm::tmat3x4<float,0>::tmat3x4<float,0>
PUBLIC	??0?$tmat3x4@M$0A@@glm@@QAE@ABU?$tmat2x4@M$0A@@1@@Z ; glm::tmat3x4<float,0>::tmat3x4<float,0>
PUBLIC	??0?$tmat3x4@M$0A@@glm@@QAE@ABU?$tmat4x2@M$0A@@1@@Z ; glm::tmat3x4<float,0>::tmat3x4<float,0>
PUBLIC	??0?$tmat3x4@M$0A@@glm@@QAE@ABU?$tmat4x3@M$0A@@1@@Z ; glm::tmat3x4<float,0>::tmat3x4<float,0>
PUBLIC	?length@?$tmat3x4@M$0A@@glm@@SAHXZ		; glm::tmat3x4<float,0>::length
PUBLIC	??A?$tmat3x4@M$0A@@glm@@QAEAAU?$tvec4@M$0A@@1@H@Z ; glm::tmat3x4<float,0>::operator[]
PUBLIC	??A?$tmat3x4@M$0A@@glm@@QBEABU?$tvec4@M$0A@@1@H@Z ; glm::tmat3x4<float,0>::operator[]
PUBLIC	??4?$tmat3x4@M$0A@@glm@@QAEAAU01@ABU01@@Z	; glm::tmat3x4<float,0>::operator=
PUBLIC	??E?$tmat3x4@M$0A@@glm@@QAEAAU01@XZ		; glm::tmat3x4<float,0>::operator++
PUBLIC	??F?$tmat3x4@M$0A@@glm@@QAEAAU01@XZ		; glm::tmat3x4<float,0>::operator--
PUBLIC	??E?$tmat3x4@M$0A@@glm@@QAE?AU01@H@Z		; glm::tmat3x4<float,0>::operator++
PUBLIC	??F?$tmat3x4@M$0A@@glm@@QAE?AU01@H@Z		; glm::tmat3x4<float,0>::operator--
PUBLIC	??0?$tmat3x4@N$0A@@glm@@QAE@XZ			; glm::tmat3x4<double,0>::tmat3x4<double,0>
PUBLIC	??0?$tmat3x4@N$0A@@glm@@QAE@ABU01@@Z		; glm::tmat3x4<double,0>::tmat3x4<double,0>
PUBLIC	??0?$tmat3x4@N$0A@@glm@@QAE@W4ctor@1@@Z		; glm::tmat3x4<double,0>::tmat3x4<double,0>
PUBLIC	??0?$tmat3x4@N$0A@@glm@@QAE@N@Z			; glm::tmat3x4<double,0>::tmat3x4<double,0>
PUBLIC	??0?$tmat3x4@N$0A@@glm@@QAE@NNNNNNNNNNNN@Z	; glm::tmat3x4<double,0>::tmat3x4<double,0>
PUBLIC	??0?$tmat3x4@N$0A@@glm@@QAE@ABU?$tvec4@N$0A@@1@00@Z ; glm::tmat3x4<double,0>::tmat3x4<double,0>
PUBLIC	??0?$tmat3x4@N$0A@@glm@@QAE@ABU?$tmat2x2@N$0A@@1@@Z ; glm::tmat3x4<double,0>::tmat3x4<double,0>
PUBLIC	??0?$tmat3x4@N$0A@@glm@@QAE@ABU?$tmat3x3@N$0A@@1@@Z ; glm::tmat3x4<double,0>::tmat3x4<double,0>
PUBLIC	??0?$tmat3x4@N$0A@@glm@@QAE@ABU?$tmat4x4@N$0A@@1@@Z ; glm::tmat3x4<double,0>::tmat3x4<double,0>
PUBLIC	??0?$tmat3x4@N$0A@@glm@@QAE@ABU?$tmat2x3@N$0A@@1@@Z ; glm::tmat3x4<double,0>::tmat3x4<double,0>
PUBLIC	??0?$tmat3x4@N$0A@@glm@@QAE@ABU?$tmat3x2@N$0A@@1@@Z ; glm::tmat3x4<double,0>::tmat3x4<double,0>
PUBLIC	??0?$tmat3x4@N$0A@@glm@@QAE@ABU?$tmat2x4@N$0A@@1@@Z ; glm::tmat3x4<double,0>::tmat3x4<double,0>
PUBLIC	??0?$tmat3x4@N$0A@@glm@@QAE@ABU?$tmat4x2@N$0A@@1@@Z ; glm::tmat3x4<double,0>::tmat3x4<double,0>
PUBLIC	??0?$tmat3x4@N$0A@@glm@@QAE@ABU?$tmat4x3@N$0A@@1@@Z ; glm::tmat3x4<double,0>::tmat3x4<double,0>
PUBLIC	?length@?$tmat3x4@N$0A@@glm@@SAHXZ		; glm::tmat3x4<double,0>::length
PUBLIC	??A?$tmat3x4@N$0A@@glm@@QAEAAU?$tvec4@N$0A@@1@H@Z ; glm::tmat3x4<double,0>::operator[]
PUBLIC	??A?$tmat3x4@N$0A@@glm@@QBEABU?$tvec4@N$0A@@1@H@Z ; glm::tmat3x4<double,0>::operator[]
PUBLIC	??4?$tmat3x4@N$0A@@glm@@QAEAAU01@ABU01@@Z	; glm::tmat3x4<double,0>::operator=
PUBLIC	??E?$tmat3x4@N$0A@@glm@@QAEAAU01@XZ		; glm::tmat3x4<double,0>::operator++
PUBLIC	??F?$tmat3x4@N$0A@@glm@@QAEAAU01@XZ		; glm::tmat3x4<double,0>::operator--
PUBLIC	??E?$tmat3x4@N$0A@@glm@@QAE?AU01@H@Z		; glm::tmat3x4<double,0>::operator++
PUBLIC	??F?$tmat3x4@N$0A@@glm@@QAE?AU01@H@Z		; glm::tmat3x4<double,0>::operator--
PUBLIC	??0?$tmat4x2@M$01@glm@@QAE@XZ			; glm::tmat4x2<float,2>::tmat4x2<float,2>
PUBLIC	??0?$tmat4x2@M$01@glm@@QAE@ABU01@@Z		; glm::tmat4x2<float,2>::tmat4x2<float,2>
PUBLIC	??0?$tmat4x2@M$01@glm@@QAE@W4ctor@1@@Z		; glm::tmat4x2<float,2>::tmat4x2<float,2>
PUBLIC	??0?$tmat4x2@M$01@glm@@QAE@M@Z			; glm::tmat4x2<float,2>::tmat4x2<float,2>
PUBLIC	??0?$tmat4x2@M$01@glm@@QAE@MMMMMMMM@Z		; glm::tmat4x2<float,2>::tmat4x2<float,2>
PUBLIC	??0?$tmat4x2@M$01@glm@@QAE@ABU?$tvec2@M$01@1@000@Z ; glm::tmat4x2<float,2>::tmat4x2<float,2>
PUBLIC	??0?$tmat4x2@M$01@glm@@QAE@ABU?$tmat2x2@M$01@1@@Z ; glm::tmat4x2<float,2>::tmat4x2<float,2>
PUBLIC	??0?$tmat4x2@M$01@glm@@QAE@ABU?$tmat3x3@M$01@1@@Z ; glm::tmat4x2<float,2>::tmat4x2<float,2>
PUBLIC	??0?$tmat4x2@M$01@glm@@QAE@ABU?$tmat4x4@M$01@1@@Z ; glm::tmat4x2<float,2>::tmat4x2<float,2>
PUBLIC	??0?$tmat4x2@M$01@glm@@QAE@ABU?$tmat2x3@M$01@1@@Z ; glm::tmat4x2<float,2>::tmat4x2<float,2>
PUBLIC	??0?$tmat4x2@M$01@glm@@QAE@ABU?$tmat3x2@M$01@1@@Z ; glm::tmat4x2<float,2>::tmat4x2<float,2>
PUBLIC	??0?$tmat4x2@M$01@glm@@QAE@ABU?$tmat2x4@M$01@1@@Z ; glm::tmat4x2<float,2>::tmat4x2<float,2>
PUBLIC	??0?$tmat4x2@M$01@glm@@QAE@ABU?$tmat4x3@M$01@1@@Z ; glm::tmat4x2<float,2>::tmat4x2<float,2>
PUBLIC	??0?$tmat4x2@M$01@glm@@QAE@ABU?$tmat3x4@M$01@1@@Z ; glm::tmat4x2<float,2>::tmat4x2<float,2>
PUBLIC	?length@?$tmat4x2@M$01@glm@@SAHXZ		; glm::tmat4x2<float,2>::length
PUBLIC	??A?$tmat4x2@M$01@glm@@QAEAAU?$tvec2@M$01@1@H@Z	; glm::tmat4x2<float,2>::operator[]
PUBLIC	??A?$tmat4x2@M$01@glm@@QBEABU?$tvec2@M$01@1@H@Z	; glm::tmat4x2<float,2>::operator[]
PUBLIC	??4?$tmat4x2@M$01@glm@@QAEAAU01@ABU01@@Z	; glm::tmat4x2<float,2>::operator=
PUBLIC	??E?$tmat4x2@M$01@glm@@QAEAAU01@XZ		; glm::tmat4x2<float,2>::operator++
PUBLIC	??F?$tmat4x2@M$01@glm@@QAEAAU01@XZ		; glm::tmat4x2<float,2>::operator--
PUBLIC	??E?$tmat4x2@M$01@glm@@QAE?AU01@H@Z		; glm::tmat4x2<float,2>::operator++
PUBLIC	??F?$tmat4x2@M$01@glm@@QAE?AU01@H@Z		; glm::tmat4x2<float,2>::operator--
PUBLIC	??0?$tmat4x2@N$01@glm@@QAE@XZ			; glm::tmat4x2<double,2>::tmat4x2<double,2>
PUBLIC	??0?$tmat4x2@N$01@glm@@QAE@ABU01@@Z		; glm::tmat4x2<double,2>::tmat4x2<double,2>
PUBLIC	??0?$tmat4x2@N$01@glm@@QAE@W4ctor@1@@Z		; glm::tmat4x2<double,2>::tmat4x2<double,2>
PUBLIC	??0?$tmat4x2@N$01@glm@@QAE@N@Z			; glm::tmat4x2<double,2>::tmat4x2<double,2>
PUBLIC	??0?$tmat4x2@N$01@glm@@QAE@NNNNNNNN@Z		; glm::tmat4x2<double,2>::tmat4x2<double,2>
PUBLIC	??0?$tmat4x2@N$01@glm@@QAE@ABU?$tvec2@N$01@1@000@Z ; glm::tmat4x2<double,2>::tmat4x2<double,2>
PUBLIC	??0?$tmat4x2@N$01@glm@@QAE@ABU?$tmat2x2@N$01@1@@Z ; glm::tmat4x2<double,2>::tmat4x2<double,2>
PUBLIC	??0?$tmat4x2@N$01@glm@@QAE@ABU?$tmat3x3@N$01@1@@Z ; glm::tmat4x2<double,2>::tmat4x2<double,2>
PUBLIC	??0?$tmat4x2@N$01@glm@@QAE@ABU?$tmat4x4@N$01@1@@Z ; glm::tmat4x2<double,2>::tmat4x2<double,2>
PUBLIC	??0?$tmat4x2@N$01@glm@@QAE@ABU?$tmat2x3@N$01@1@@Z ; glm::tmat4x2<double,2>::tmat4x2<double,2>
PUBLIC	??0?$tmat4x2@N$01@glm@@QAE@ABU?$tmat3x2@N$01@1@@Z ; glm::tmat4x2<double,2>::tmat4x2<double,2>
PUBLIC	??0?$tmat4x2@N$01@glm@@QAE@ABU?$tmat2x4@N$01@1@@Z ; glm::tmat4x2<double,2>::tmat4x2<double,2>
PUBLIC	??0?$tmat4x2@N$01@glm@@QAE@ABU?$tmat4x3@N$01@1@@Z ; glm::tmat4x2<double,2>::tmat4x2<double,2>
PUBLIC	??0?$tmat4x2@N$01@glm@@QAE@ABU?$tmat3x4@N$01@1@@Z ; glm::tmat4x2<double,2>::tmat4x2<double,2>
PUBLIC	?length@?$tmat4x2@N$01@glm@@SAHXZ		; glm::tmat4x2<double,2>::length
PUBLIC	??A?$tmat4x2@N$01@glm@@QAEAAU?$tvec2@N$01@1@H@Z	; glm::tmat4x2<double,2>::operator[]
PUBLIC	??A?$tmat4x2@N$01@glm@@QBEABU?$tvec2@N$01@1@H@Z	; glm::tmat4x2<double,2>::operator[]
PUBLIC	??4?$tmat4x2@N$01@glm@@QAEAAU01@ABU01@@Z	; glm::tmat4x2<double,2>::operator=
PUBLIC	??E?$tmat4x2@N$01@glm@@QAEAAU01@XZ		; glm::tmat4x2<double,2>::operator++
PUBLIC	??F?$tmat4x2@N$01@glm@@QAEAAU01@XZ		; glm::tmat4x2<double,2>::operator--
PUBLIC	??E?$tmat4x2@N$01@glm@@QAE?AU01@H@Z		; glm::tmat4x2<double,2>::operator++
PUBLIC	??F?$tmat4x2@N$01@glm@@QAE?AU01@H@Z		; glm::tmat4x2<double,2>::operator--
PUBLIC	??0?$tmat4x2@M$00@glm@@QAE@XZ			; glm::tmat4x2<float,1>::tmat4x2<float,1>
PUBLIC	??0?$tmat4x2@M$00@glm@@QAE@ABU01@@Z		; glm::tmat4x2<float,1>::tmat4x2<float,1>
PUBLIC	??0?$tmat4x2@M$00@glm@@QAE@W4ctor@1@@Z		; glm::tmat4x2<float,1>::tmat4x2<float,1>
PUBLIC	??0?$tmat4x2@M$00@glm@@QAE@M@Z			; glm::tmat4x2<float,1>::tmat4x2<float,1>
PUBLIC	??0?$tmat4x2@M$00@glm@@QAE@MMMMMMMM@Z		; glm::tmat4x2<float,1>::tmat4x2<float,1>
PUBLIC	??0?$tmat4x2@M$00@glm@@QAE@ABU?$tvec2@M$00@1@000@Z ; glm::tmat4x2<float,1>::tmat4x2<float,1>
PUBLIC	??0?$tmat4x2@M$00@glm@@QAE@ABU?$tmat2x2@M$00@1@@Z ; glm::tmat4x2<float,1>::tmat4x2<float,1>
PUBLIC	??0?$tmat4x2@M$00@glm@@QAE@ABU?$tmat3x3@M$00@1@@Z ; glm::tmat4x2<float,1>::tmat4x2<float,1>
PUBLIC	??0?$tmat4x2@M$00@glm@@QAE@ABU?$tmat4x4@M$00@1@@Z ; glm::tmat4x2<float,1>::tmat4x2<float,1>
PUBLIC	??0?$tmat4x2@M$00@glm@@QAE@ABU?$tmat2x3@M$00@1@@Z ; glm::tmat4x2<float,1>::tmat4x2<float,1>
PUBLIC	??0?$tmat4x2@M$00@glm@@QAE@ABU?$tmat3x2@M$00@1@@Z ; glm::tmat4x2<float,1>::tmat4x2<float,1>
PUBLIC	??0?$tmat4x2@M$00@glm@@QAE@ABU?$tmat2x4@M$00@1@@Z ; glm::tmat4x2<float,1>::tmat4x2<float,1>
PUBLIC	??0?$tmat4x2@M$00@glm@@QAE@ABU?$tmat4x3@M$00@1@@Z ; glm::tmat4x2<float,1>::tmat4x2<float,1>
PUBLIC	??0?$tmat4x2@M$00@glm@@QAE@ABU?$tmat3x4@M$00@1@@Z ; glm::tmat4x2<float,1>::tmat4x2<float,1>
PUBLIC	?length@?$tmat4x2@M$00@glm@@SAHXZ		; glm::tmat4x2<float,1>::length
PUBLIC	??A?$tmat4x2@M$00@glm@@QAEAAU?$tvec2@M$00@1@H@Z	; glm::tmat4x2<float,1>::operator[]
PUBLIC	??A?$tmat4x2@M$00@glm@@QBEABU?$tvec2@M$00@1@H@Z	; glm::tmat4x2<float,1>::operator[]
PUBLIC	??4?$tmat4x2@M$00@glm@@QAEAAU01@ABU01@@Z	; glm::tmat4x2<float,1>::operator=
PUBLIC	??E?$tmat4x2@M$00@glm@@QAEAAU01@XZ		; glm::tmat4x2<float,1>::operator++
PUBLIC	??F?$tmat4x2@M$00@glm@@QAEAAU01@XZ		; glm::tmat4x2<float,1>::operator--
PUBLIC	??E?$tmat4x2@M$00@glm@@QAE?AU01@H@Z		; glm::tmat4x2<float,1>::operator++
PUBLIC	??F?$tmat4x2@M$00@glm@@QAE?AU01@H@Z		; glm::tmat4x2<float,1>::operator--
PUBLIC	??0?$tmat4x2@N$00@glm@@QAE@XZ			; glm::tmat4x2<double,1>::tmat4x2<double,1>
PUBLIC	??0?$tmat4x2@N$00@glm@@QAE@ABU01@@Z		; glm::tmat4x2<double,1>::tmat4x2<double,1>
PUBLIC	??0?$tmat4x2@N$00@glm@@QAE@W4ctor@1@@Z		; glm::tmat4x2<double,1>::tmat4x2<double,1>
PUBLIC	??0?$tmat4x2@N$00@glm@@QAE@N@Z			; glm::tmat4x2<double,1>::tmat4x2<double,1>
PUBLIC	??0?$tmat4x2@N$00@glm@@QAE@NNNNNNNN@Z		; glm::tmat4x2<double,1>::tmat4x2<double,1>
PUBLIC	??0?$tmat4x2@N$00@glm@@QAE@ABU?$tvec2@N$00@1@000@Z ; glm::tmat4x2<double,1>::tmat4x2<double,1>
PUBLIC	??0?$tmat4x2@N$00@glm@@QAE@ABU?$tmat2x2@N$00@1@@Z ; glm::tmat4x2<double,1>::tmat4x2<double,1>
PUBLIC	??0?$tmat4x2@N$00@glm@@QAE@ABU?$tmat3x3@N$00@1@@Z ; glm::tmat4x2<double,1>::tmat4x2<double,1>
PUBLIC	??0?$tmat4x2@N$00@glm@@QAE@ABU?$tmat4x4@N$00@1@@Z ; glm::tmat4x2<double,1>::tmat4x2<double,1>
PUBLIC	??0?$tmat4x2@N$00@glm@@QAE@ABU?$tmat2x3@N$00@1@@Z ; glm::tmat4x2<double,1>::tmat4x2<double,1>
PUBLIC	??0?$tmat4x2@N$00@glm@@QAE@ABU?$tmat3x2@N$00@1@@Z ; glm::tmat4x2<double,1>::tmat4x2<double,1>
PUBLIC	??0?$tmat4x2@N$00@glm@@QAE@ABU?$tmat2x4@N$00@1@@Z ; glm::tmat4x2<double,1>::tmat4x2<double,1>
PUBLIC	??0?$tmat4x2@N$00@glm@@QAE@ABU?$tmat4x3@N$00@1@@Z ; glm::tmat4x2<double,1>::tmat4x2<double,1>
PUBLIC	??0?$tmat4x2@N$00@glm@@QAE@ABU?$tmat3x4@N$00@1@@Z ; glm::tmat4x2<double,1>::tmat4x2<double,1>
PUBLIC	?length@?$tmat4x2@N$00@glm@@SAHXZ		; glm::tmat4x2<double,1>::length
PUBLIC	??A?$tmat4x2@N$00@glm@@QAEAAU?$tvec2@N$00@1@H@Z	; glm::tmat4x2<double,1>::operator[]
PUBLIC	??A?$tmat4x2@N$00@glm@@QBEABU?$tvec2@N$00@1@H@Z	; glm::tmat4x2<double,1>::operator[]
PUBLIC	??4?$tmat4x2@N$00@glm@@QAEAAU01@ABU01@@Z	; glm::tmat4x2<double,1>::operator=
PUBLIC	??E?$tmat4x2@N$00@glm@@QAEAAU01@XZ		; glm::tmat4x2<double,1>::operator++
PUBLIC	??F?$tmat4x2@N$00@glm@@QAEAAU01@XZ		; glm::tmat4x2<double,1>::operator--
PUBLIC	??E?$tmat4x2@N$00@glm@@QAE?AU01@H@Z		; glm::tmat4x2<double,1>::operator++
PUBLIC	??F?$tmat4x2@N$00@glm@@QAE?AU01@H@Z		; glm::tmat4x2<double,1>::operator--
PUBLIC	??0?$tmat4x2@M$0A@@glm@@QAE@XZ			; glm::tmat4x2<float,0>::tmat4x2<float,0>
PUBLIC	??0?$tmat4x2@M$0A@@glm@@QAE@ABU01@@Z		; glm::tmat4x2<float,0>::tmat4x2<float,0>
PUBLIC	??0?$tmat4x2@M$0A@@glm@@QAE@W4ctor@1@@Z		; glm::tmat4x2<float,0>::tmat4x2<float,0>
PUBLIC	??0?$tmat4x2@M$0A@@glm@@QAE@M@Z			; glm::tmat4x2<float,0>::tmat4x2<float,0>
PUBLIC	??0?$tmat4x2@M$0A@@glm@@QAE@MMMMMMMM@Z		; glm::tmat4x2<float,0>::tmat4x2<float,0>
PUBLIC	??0?$tmat4x2@M$0A@@glm@@QAE@ABU?$tvec2@M$0A@@1@000@Z ; glm::tmat4x2<float,0>::tmat4x2<float,0>
PUBLIC	??0?$tmat4x2@M$0A@@glm@@QAE@ABU?$tmat2x2@M$0A@@1@@Z ; glm::tmat4x2<float,0>::tmat4x2<float,0>
PUBLIC	??0?$tmat4x2@M$0A@@glm@@QAE@ABU?$tmat3x3@M$0A@@1@@Z ; glm::tmat4x2<float,0>::tmat4x2<float,0>
PUBLIC	??0?$tmat4x2@M$0A@@glm@@QAE@ABU?$tmat4x4@M$0A@@1@@Z ; glm::tmat4x2<float,0>::tmat4x2<float,0>
PUBLIC	??0?$tmat4x2@M$0A@@glm@@QAE@ABU?$tmat2x3@M$0A@@1@@Z ; glm::tmat4x2<float,0>::tmat4x2<float,0>
PUBLIC	??0?$tmat4x2@M$0A@@glm@@QAE@ABU?$tmat3x2@M$0A@@1@@Z ; glm::tmat4x2<float,0>::tmat4x2<float,0>
PUBLIC	??0?$tmat4x2@M$0A@@glm@@QAE@ABU?$tmat2x4@M$0A@@1@@Z ; glm::tmat4x2<float,0>::tmat4x2<float,0>
PUBLIC	??0?$tmat4x2@M$0A@@glm@@QAE@ABU?$tmat4x3@M$0A@@1@@Z ; glm::tmat4x2<float,0>::tmat4x2<float,0>
PUBLIC	??0?$tmat4x2@M$0A@@glm@@QAE@ABU?$tmat3x4@M$0A@@1@@Z ; glm::tmat4x2<float,0>::tmat4x2<float,0>
PUBLIC	?length@?$tmat4x2@M$0A@@glm@@SAHXZ		; glm::tmat4x2<float,0>::length
PUBLIC	??A?$tmat4x2@M$0A@@glm@@QAEAAU?$tvec2@M$0A@@1@H@Z ; glm::tmat4x2<float,0>::operator[]
PUBLIC	??A?$tmat4x2@M$0A@@glm@@QBEABU?$tvec2@M$0A@@1@H@Z ; glm::tmat4x2<float,0>::operator[]
PUBLIC	??4?$tmat4x2@M$0A@@glm@@QAEAAU01@ABU01@@Z	; glm::tmat4x2<float,0>::operator=
PUBLIC	??E?$tmat4x2@M$0A@@glm@@QAEAAU01@XZ		; glm::tmat4x2<float,0>::operator++
PUBLIC	??F?$tmat4x2@M$0A@@glm@@QAEAAU01@XZ		; glm::tmat4x2<float,0>::operator--
PUBLIC	??E?$tmat4x2@M$0A@@glm@@QAE?AU01@H@Z		; glm::tmat4x2<float,0>::operator++
PUBLIC	??F?$tmat4x2@M$0A@@glm@@QAE?AU01@H@Z		; glm::tmat4x2<float,0>::operator--
PUBLIC	??0?$tmat4x2@N$0A@@glm@@QAE@XZ			; glm::tmat4x2<double,0>::tmat4x2<double,0>
PUBLIC	??0?$tmat4x2@N$0A@@glm@@QAE@ABU01@@Z		; glm::tmat4x2<double,0>::tmat4x2<double,0>
PUBLIC	??0?$tmat4x2@N$0A@@glm@@QAE@W4ctor@1@@Z		; glm::tmat4x2<double,0>::tmat4x2<double,0>
PUBLIC	??0?$tmat4x2@N$0A@@glm@@QAE@N@Z			; glm::tmat4x2<double,0>::tmat4x2<double,0>
PUBLIC	??0?$tmat4x2@N$0A@@glm@@QAE@NNNNNNNN@Z		; glm::tmat4x2<double,0>::tmat4x2<double,0>
PUBLIC	??0?$tmat4x2@N$0A@@glm@@QAE@ABU?$tvec2@N$0A@@1@000@Z ; glm::tmat4x2<double,0>::tmat4x2<double,0>
PUBLIC	??0?$tmat4x2@N$0A@@glm@@QAE@ABU?$tmat2x2@N$0A@@1@@Z ; glm::tmat4x2<double,0>::tmat4x2<double,0>
PUBLIC	??0?$tmat4x2@N$0A@@glm@@QAE@ABU?$tmat3x3@N$0A@@1@@Z ; glm::tmat4x2<double,0>::tmat4x2<double,0>
PUBLIC	??0?$tmat4x2@N$0A@@glm@@QAE@ABU?$tmat4x4@N$0A@@1@@Z ; glm::tmat4x2<double,0>::tmat4x2<double,0>
PUBLIC	??0?$tmat4x2@N$0A@@glm@@QAE@ABU?$tmat2x3@N$0A@@1@@Z ; glm::tmat4x2<double,0>::tmat4x2<double,0>
PUBLIC	??0?$tmat4x2@N$0A@@glm@@QAE@ABU?$tmat3x2@N$0A@@1@@Z ; glm::tmat4x2<double,0>::tmat4x2<double,0>
PUBLIC	??0?$tmat4x2@N$0A@@glm@@QAE@ABU?$tmat2x4@N$0A@@1@@Z ; glm::tmat4x2<double,0>::tmat4x2<double,0>
PUBLIC	??0?$tmat4x2@N$0A@@glm@@QAE@ABU?$tmat4x3@N$0A@@1@@Z ; glm::tmat4x2<double,0>::tmat4x2<double,0>
PUBLIC	??0?$tmat4x2@N$0A@@glm@@QAE@ABU?$tmat3x4@N$0A@@1@@Z ; glm::tmat4x2<double,0>::tmat4x2<double,0>
PUBLIC	?length@?$tmat4x2@N$0A@@glm@@SAHXZ		; glm::tmat4x2<double,0>::length
PUBLIC	??A?$tmat4x2@N$0A@@glm@@QAEAAU?$tvec2@N$0A@@1@H@Z ; glm::tmat4x2<double,0>::operator[]
PUBLIC	??A?$tmat4x2@N$0A@@glm@@QBEABU?$tvec2@N$0A@@1@H@Z ; glm::tmat4x2<double,0>::operator[]
PUBLIC	??4?$tmat4x2@N$0A@@glm@@QAEAAU01@ABU01@@Z	; glm::tmat4x2<double,0>::operator=
PUBLIC	??E?$tmat4x2@N$0A@@glm@@QAEAAU01@XZ		; glm::tmat4x2<double,0>::operator++
PUBLIC	??F?$tmat4x2@N$0A@@glm@@QAEAAU01@XZ		; glm::tmat4x2<double,0>::operator--
PUBLIC	??E?$tmat4x2@N$0A@@glm@@QAE?AU01@H@Z		; glm::tmat4x2<double,0>::operator++
PUBLIC	??F?$tmat4x2@N$0A@@glm@@QAE?AU01@H@Z		; glm::tmat4x2<double,0>::operator--
PUBLIC	??0?$tmat4x3@M$01@glm@@QAE@XZ			; glm::tmat4x3<float,2>::tmat4x3<float,2>
PUBLIC	??0?$tmat4x3@M$01@glm@@QAE@ABU01@@Z		; glm::tmat4x3<float,2>::tmat4x3<float,2>
PUBLIC	??0?$tmat4x3@M$01@glm@@QAE@W4ctor@1@@Z		; glm::tmat4x3<float,2>::tmat4x3<float,2>
PUBLIC	??0?$tmat4x3@M$01@glm@@QAE@ABM@Z		; glm::tmat4x3<float,2>::tmat4x3<float,2>
PUBLIC	??0?$tmat4x3@M$01@glm@@QAE@ABM00000000000@Z	; glm::tmat4x3<float,2>::tmat4x3<float,2>
PUBLIC	??0?$tmat4x3@M$01@glm@@QAE@ABU?$tvec3@M$01@1@000@Z ; glm::tmat4x3<float,2>::tmat4x3<float,2>
PUBLIC	??0?$tmat4x3@M$01@glm@@QAE@ABU?$tmat2x2@M$01@1@@Z ; glm::tmat4x3<float,2>::tmat4x3<float,2>
PUBLIC	??0?$tmat4x3@M$01@glm@@QAE@ABU?$tmat3x3@M$01@1@@Z ; glm::tmat4x3<float,2>::tmat4x3<float,2>
PUBLIC	??0?$tmat4x3@M$01@glm@@QAE@ABU?$tmat4x4@M$01@1@@Z ; glm::tmat4x3<float,2>::tmat4x3<float,2>
PUBLIC	??0?$tmat4x3@M$01@glm@@QAE@ABU?$tmat2x3@M$01@1@@Z ; glm::tmat4x3<float,2>::tmat4x3<float,2>
PUBLIC	??0?$tmat4x3@M$01@glm@@QAE@ABU?$tmat3x2@M$01@1@@Z ; glm::tmat4x3<float,2>::tmat4x3<float,2>
PUBLIC	??0?$tmat4x3@M$01@glm@@QAE@ABU?$tmat2x4@M$01@1@@Z ; glm::tmat4x3<float,2>::tmat4x3<float,2>
PUBLIC	??0?$tmat4x3@M$01@glm@@QAE@ABU?$tmat4x2@M$01@1@@Z ; glm::tmat4x3<float,2>::tmat4x3<float,2>
PUBLIC	??0?$tmat4x3@M$01@glm@@QAE@ABU?$tmat3x4@M$01@1@@Z ; glm::tmat4x3<float,2>::tmat4x3<float,2>
PUBLIC	?length@?$tmat4x3@M$01@glm@@SAHXZ		; glm::tmat4x3<float,2>::length
PUBLIC	??A?$tmat4x3@M$01@glm@@QAEAAU?$tvec3@M$01@1@H@Z	; glm::tmat4x3<float,2>::operator[]
PUBLIC	??A?$tmat4x3@M$01@glm@@QBEABU?$tvec3@M$01@1@H@Z	; glm::tmat4x3<float,2>::operator[]
PUBLIC	??4?$tmat4x3@M$01@glm@@QAEAAU01@ABU01@@Z	; glm::tmat4x3<float,2>::operator=
PUBLIC	??E?$tmat4x3@M$01@glm@@QAEAAU01@XZ		; glm::tmat4x3<float,2>::operator++
PUBLIC	??F?$tmat4x3@M$01@glm@@QAEAAU01@XZ		; glm::tmat4x3<float,2>::operator--
PUBLIC	??E?$tmat4x3@M$01@glm@@QAE?AU01@H@Z		; glm::tmat4x3<float,2>::operator++
PUBLIC	??F?$tmat4x3@M$01@glm@@QAE?AU01@H@Z		; glm::tmat4x3<float,2>::operator--
PUBLIC	??0?$tmat4x3@N$01@glm@@QAE@XZ			; glm::tmat4x3<double,2>::tmat4x3<double,2>
PUBLIC	??0?$tmat4x3@N$01@glm@@QAE@ABU01@@Z		; glm::tmat4x3<double,2>::tmat4x3<double,2>
PUBLIC	??0?$tmat4x3@N$01@glm@@QAE@W4ctor@1@@Z		; glm::tmat4x3<double,2>::tmat4x3<double,2>
PUBLIC	??0?$tmat4x3@N$01@glm@@QAE@ABN@Z		; glm::tmat4x3<double,2>::tmat4x3<double,2>
PUBLIC	??0?$tmat4x3@N$01@glm@@QAE@ABN00000000000@Z	; glm::tmat4x3<double,2>::tmat4x3<double,2>
PUBLIC	??0?$tmat4x3@N$01@glm@@QAE@ABU?$tvec3@N$01@1@000@Z ; glm::tmat4x3<double,2>::tmat4x3<double,2>
PUBLIC	??0?$tmat4x3@N$01@glm@@QAE@ABU?$tmat2x2@N$01@1@@Z ; glm::tmat4x3<double,2>::tmat4x3<double,2>
PUBLIC	??0?$tmat4x3@N$01@glm@@QAE@ABU?$tmat3x3@N$01@1@@Z ; glm::tmat4x3<double,2>::tmat4x3<double,2>
PUBLIC	??0?$tmat4x3@N$01@glm@@QAE@ABU?$tmat4x4@N$01@1@@Z ; glm::tmat4x3<double,2>::tmat4x3<double,2>
PUBLIC	??0?$tmat4x3@N$01@glm@@QAE@ABU?$tmat2x3@N$01@1@@Z ; glm::tmat4x3<double,2>::tmat4x3<double,2>
PUBLIC	??0?$tmat4x3@N$01@glm@@QAE@ABU?$tmat3x2@N$01@1@@Z ; glm::tmat4x3<double,2>::tmat4x3<double,2>
PUBLIC	??0?$tmat4x3@N$01@glm@@QAE@ABU?$tmat2x4@N$01@1@@Z ; glm::tmat4x3<double,2>::tmat4x3<double,2>
PUBLIC	??0?$tmat4x3@N$01@glm@@QAE@ABU?$tmat4x2@N$01@1@@Z ; glm::tmat4x3<double,2>::tmat4x3<double,2>
PUBLIC	??0?$tmat4x3@N$01@glm@@QAE@ABU?$tmat3x4@N$01@1@@Z ; glm::tmat4x3<double,2>::tmat4x3<double,2>
PUBLIC	?length@?$tmat4x3@N$01@glm@@SAHXZ		; glm::tmat4x3<double,2>::length
PUBLIC	??A?$tmat4x3@N$01@glm@@QAEAAU?$tvec3@N$01@1@H@Z	; glm::tmat4x3<double,2>::operator[]
PUBLIC	??A?$tmat4x3@N$01@glm@@QBEABU?$tvec3@N$01@1@H@Z	; glm::tmat4x3<double,2>::operator[]
PUBLIC	??4?$tmat4x3@N$01@glm@@QAEAAU01@ABU01@@Z	; glm::tmat4x3<double,2>::operator=
PUBLIC	??E?$tmat4x3@N$01@glm@@QAEAAU01@XZ		; glm::tmat4x3<double,2>::operator++
PUBLIC	??F?$tmat4x3@N$01@glm@@QAEAAU01@XZ		; glm::tmat4x3<double,2>::operator--
PUBLIC	??E?$tmat4x3@N$01@glm@@QAE?AU01@H@Z		; glm::tmat4x3<double,2>::operator++
PUBLIC	??F?$tmat4x3@N$01@glm@@QAE?AU01@H@Z		; glm::tmat4x3<double,2>::operator--
PUBLIC	??0?$tmat4x3@M$00@glm@@QAE@XZ			; glm::tmat4x3<float,1>::tmat4x3<float,1>
PUBLIC	??0?$tmat4x3@M$00@glm@@QAE@ABU01@@Z		; glm::tmat4x3<float,1>::tmat4x3<float,1>
PUBLIC	??0?$tmat4x3@M$00@glm@@QAE@W4ctor@1@@Z		; glm::tmat4x3<float,1>::tmat4x3<float,1>
PUBLIC	??0?$tmat4x3@M$00@glm@@QAE@ABM@Z		; glm::tmat4x3<float,1>::tmat4x3<float,1>
PUBLIC	??0?$tmat4x3@M$00@glm@@QAE@ABM00000000000@Z	; glm::tmat4x3<float,1>::tmat4x3<float,1>
PUBLIC	??0?$tmat4x3@M$00@glm@@QAE@ABU?$tvec3@M$00@1@000@Z ; glm::tmat4x3<float,1>::tmat4x3<float,1>
PUBLIC	??0?$tmat4x3@M$00@glm@@QAE@ABU?$tmat2x2@M$00@1@@Z ; glm::tmat4x3<float,1>::tmat4x3<float,1>
PUBLIC	??0?$tmat4x3@M$00@glm@@QAE@ABU?$tmat3x3@M$00@1@@Z ; glm::tmat4x3<float,1>::tmat4x3<float,1>
PUBLIC	??0?$tmat4x3@M$00@glm@@QAE@ABU?$tmat4x4@M$00@1@@Z ; glm::tmat4x3<float,1>::tmat4x3<float,1>
PUBLIC	??0?$tmat4x3@M$00@glm@@QAE@ABU?$tmat2x3@M$00@1@@Z ; glm::tmat4x3<float,1>::tmat4x3<float,1>
PUBLIC	??0?$tmat4x3@M$00@glm@@QAE@ABU?$tmat3x2@M$00@1@@Z ; glm::tmat4x3<float,1>::tmat4x3<float,1>
PUBLIC	??0?$tmat4x3@M$00@glm@@QAE@ABU?$tmat2x4@M$00@1@@Z ; glm::tmat4x3<float,1>::tmat4x3<float,1>
PUBLIC	??0?$tmat4x3@M$00@glm@@QAE@ABU?$tmat4x2@M$00@1@@Z ; glm::tmat4x3<float,1>::tmat4x3<float,1>
PUBLIC	??0?$tmat4x3@M$00@glm@@QAE@ABU?$tmat3x4@M$00@1@@Z ; glm::tmat4x3<float,1>::tmat4x3<float,1>
PUBLIC	?length@?$tmat4x3@M$00@glm@@SAHXZ		; glm::tmat4x3<float,1>::length
PUBLIC	??A?$tmat4x3@M$00@glm@@QAEAAU?$tvec3@M$00@1@H@Z	; glm::tmat4x3<float,1>::operator[]
PUBLIC	??A?$tmat4x3@M$00@glm@@QBEABU?$tvec3@M$00@1@H@Z	; glm::tmat4x3<float,1>::operator[]
PUBLIC	??4?$tmat4x3@M$00@glm@@QAEAAU01@ABU01@@Z	; glm::tmat4x3<float,1>::operator=
PUBLIC	??E?$tmat4x3@M$00@glm@@QAEAAU01@XZ		; glm::tmat4x3<float,1>::operator++
PUBLIC	??F?$tmat4x3@M$00@glm@@QAEAAU01@XZ		; glm::tmat4x3<float,1>::operator--
PUBLIC	??E?$tmat4x3@M$00@glm@@QAE?AU01@H@Z		; glm::tmat4x3<float,1>::operator++
PUBLIC	??F?$tmat4x3@M$00@glm@@QAE?AU01@H@Z		; glm::tmat4x3<float,1>::operator--
PUBLIC	??0?$tmat4x3@N$00@glm@@QAE@XZ			; glm::tmat4x3<double,1>::tmat4x3<double,1>
PUBLIC	??0?$tmat4x3@N$00@glm@@QAE@ABU01@@Z		; glm::tmat4x3<double,1>::tmat4x3<double,1>
PUBLIC	??0?$tmat4x3@N$00@glm@@QAE@W4ctor@1@@Z		; glm::tmat4x3<double,1>::tmat4x3<double,1>
PUBLIC	??0?$tmat4x3@N$00@glm@@QAE@ABN@Z		; glm::tmat4x3<double,1>::tmat4x3<double,1>
PUBLIC	??0?$tmat4x3@N$00@glm@@QAE@ABN00000000000@Z	; glm::tmat4x3<double,1>::tmat4x3<double,1>
PUBLIC	??0?$tmat4x3@N$00@glm@@QAE@ABU?$tvec3@N$00@1@000@Z ; glm::tmat4x3<double,1>::tmat4x3<double,1>
PUBLIC	??0?$tmat4x3@N$00@glm@@QAE@ABU?$tmat2x2@N$00@1@@Z ; glm::tmat4x3<double,1>::tmat4x3<double,1>
PUBLIC	??0?$tmat4x3@N$00@glm@@QAE@ABU?$tmat3x3@N$00@1@@Z ; glm::tmat4x3<double,1>::tmat4x3<double,1>
PUBLIC	??0?$tmat4x3@N$00@glm@@QAE@ABU?$tmat4x4@N$00@1@@Z ; glm::tmat4x3<double,1>::tmat4x3<double,1>
PUBLIC	??0?$tmat4x3@N$00@glm@@QAE@ABU?$tmat2x3@N$00@1@@Z ; glm::tmat4x3<double,1>::tmat4x3<double,1>
PUBLIC	??0?$tmat4x3@N$00@glm@@QAE@ABU?$tmat3x2@N$00@1@@Z ; glm::tmat4x3<double,1>::tmat4x3<double,1>
PUBLIC	??0?$tmat4x3@N$00@glm@@QAE@ABU?$tmat2x4@N$00@1@@Z ; glm::tmat4x3<double,1>::tmat4x3<double,1>
PUBLIC	??0?$tmat4x3@N$00@glm@@QAE@ABU?$tmat4x2@N$00@1@@Z ; glm::tmat4x3<double,1>::tmat4x3<double,1>
PUBLIC	??0?$tmat4x3@N$00@glm@@QAE@ABU?$tmat3x4@N$00@1@@Z ; glm::tmat4x3<double,1>::tmat4x3<double,1>
PUBLIC	?length@?$tmat4x3@N$00@glm@@SAHXZ		; glm::tmat4x3<double,1>::length
PUBLIC	??A?$tmat4x3@N$00@glm@@QAEAAU?$tvec3@N$00@1@H@Z	; glm::tmat4x3<double,1>::operator[]
PUBLIC	??A?$tmat4x3@N$00@glm@@QBEABU?$tvec3@N$00@1@H@Z	; glm::tmat4x3<double,1>::operator[]
PUBLIC	??4?$tmat4x3@N$00@glm@@QAEAAU01@ABU01@@Z	; glm::tmat4x3<double,1>::operator=
PUBLIC	??E?$tmat4x3@N$00@glm@@QAEAAU01@XZ		; glm::tmat4x3<double,1>::operator++
PUBLIC	??F?$tmat4x3@N$00@glm@@QAEAAU01@XZ		; glm::tmat4x3<double,1>::operator--
PUBLIC	??E?$tmat4x3@N$00@glm@@QAE?AU01@H@Z		; glm::tmat4x3<double,1>::operator++
PUBLIC	??F?$tmat4x3@N$00@glm@@QAE?AU01@H@Z		; glm::tmat4x3<double,1>::operator--
PUBLIC	??0?$tmat4x3@M$0A@@glm@@QAE@XZ			; glm::tmat4x3<float,0>::tmat4x3<float,0>
PUBLIC	??0?$tmat4x3@M$0A@@glm@@QAE@ABU01@@Z		; glm::tmat4x3<float,0>::tmat4x3<float,0>
PUBLIC	??0?$tmat4x3@M$0A@@glm@@QAE@W4ctor@1@@Z		; glm::tmat4x3<float,0>::tmat4x3<float,0>
PUBLIC	??0?$tmat4x3@M$0A@@glm@@QAE@ABM@Z		; glm::tmat4x3<float,0>::tmat4x3<float,0>
PUBLIC	??0?$tmat4x3@M$0A@@glm@@QAE@ABM00000000000@Z	; glm::tmat4x3<float,0>::tmat4x3<float,0>
PUBLIC	??0?$tmat4x3@M$0A@@glm@@QAE@ABU?$tvec3@M$0A@@1@000@Z ; glm::tmat4x3<float,0>::tmat4x3<float,0>
PUBLIC	??0?$tmat4x3@M$0A@@glm@@QAE@ABU?$tmat2x2@M$0A@@1@@Z ; glm::tmat4x3<float,0>::tmat4x3<float,0>
PUBLIC	??0?$tmat4x3@M$0A@@glm@@QAE@ABU?$tmat3x3@M$0A@@1@@Z ; glm::tmat4x3<float,0>::tmat4x3<float,0>
PUBLIC	??0?$tmat4x3@M$0A@@glm@@QAE@ABU?$tmat4x4@M$0A@@1@@Z ; glm::tmat4x3<float,0>::tmat4x3<float,0>
PUBLIC	??0?$tmat4x3@M$0A@@glm@@QAE@ABU?$tmat2x3@M$0A@@1@@Z ; glm::tmat4x3<float,0>::tmat4x3<float,0>
PUBLIC	??0?$tmat4x3@M$0A@@glm@@QAE@ABU?$tmat3x2@M$0A@@1@@Z ; glm::tmat4x3<float,0>::tmat4x3<float,0>
PUBLIC	??0?$tmat4x3@M$0A@@glm@@QAE@ABU?$tmat2x4@M$0A@@1@@Z ; glm::tmat4x3<float,0>::tmat4x3<float,0>
PUBLIC	??0?$tmat4x3@M$0A@@glm@@QAE@ABU?$tmat4x2@M$0A@@1@@Z ; glm::tmat4x3<float,0>::tmat4x3<float,0>
PUBLIC	??0?$tmat4x3@M$0A@@glm@@QAE@ABU?$tmat3x4@M$0A@@1@@Z ; glm::tmat4x3<float,0>::tmat4x3<float,0>
PUBLIC	?length@?$tmat4x3@M$0A@@glm@@SAHXZ		; glm::tmat4x3<float,0>::length
PUBLIC	??A?$tmat4x3@M$0A@@glm@@QAEAAU?$tvec3@M$0A@@1@H@Z ; glm::tmat4x3<float,0>::operator[]
PUBLIC	??A?$tmat4x3@M$0A@@glm@@QBEABU?$tvec3@M$0A@@1@H@Z ; glm::tmat4x3<float,0>::operator[]
PUBLIC	??4?$tmat4x3@M$0A@@glm@@QAEAAU01@ABU01@@Z	; glm::tmat4x3<float,0>::operator=
PUBLIC	??E?$tmat4x3@M$0A@@glm@@QAEAAU01@XZ		; glm::tmat4x3<float,0>::operator++
PUBLIC	??F?$tmat4x3@M$0A@@glm@@QAEAAU01@XZ		; glm::tmat4x3<float,0>::operator--
PUBLIC	??E?$tmat4x3@M$0A@@glm@@QAE?AU01@H@Z		; glm::tmat4x3<float,0>::operator++
PUBLIC	??F?$tmat4x3@M$0A@@glm@@QAE?AU01@H@Z		; glm::tmat4x3<float,0>::operator--
PUBLIC	??0?$tmat4x3@N$0A@@glm@@QAE@XZ			; glm::tmat4x3<double,0>::tmat4x3<double,0>
PUBLIC	??0?$tmat4x3@N$0A@@glm@@QAE@ABU01@@Z		; glm::tmat4x3<double,0>::tmat4x3<double,0>
PUBLIC	??0?$tmat4x3@N$0A@@glm@@QAE@W4ctor@1@@Z		; glm::tmat4x3<double,0>::tmat4x3<double,0>
PUBLIC	??0?$tmat4x3@N$0A@@glm@@QAE@ABN@Z		; glm::tmat4x3<double,0>::tmat4x3<double,0>
PUBLIC	??0?$tmat4x3@N$0A@@glm@@QAE@ABN00000000000@Z	; glm::tmat4x3<double,0>::tmat4x3<double,0>
PUBLIC	??0?$tmat4x3@N$0A@@glm@@QAE@ABU?$tvec3@N$0A@@1@000@Z ; glm::tmat4x3<double,0>::tmat4x3<double,0>
PUBLIC	??0?$tmat4x3@N$0A@@glm@@QAE@ABU?$tmat2x2@N$0A@@1@@Z ; glm::tmat4x3<double,0>::tmat4x3<double,0>
PUBLIC	??0?$tmat4x3@N$0A@@glm@@QAE@ABU?$tmat3x3@N$0A@@1@@Z ; glm::tmat4x3<double,0>::tmat4x3<double,0>
PUBLIC	??0?$tmat4x3@N$0A@@glm@@QAE@ABU?$tmat4x4@N$0A@@1@@Z ; glm::tmat4x3<double,0>::tmat4x3<double,0>
PUBLIC	??0?$tmat4x3@N$0A@@glm@@QAE@ABU?$tmat2x3@N$0A@@1@@Z ; glm::tmat4x3<double,0>::tmat4x3<double,0>
PUBLIC	??0?$tmat4x3@N$0A@@glm@@QAE@ABU?$tmat3x2@N$0A@@1@@Z ; glm::tmat4x3<double,0>::tmat4x3<double,0>
PUBLIC	??0?$tmat4x3@N$0A@@glm@@QAE@ABU?$tmat2x4@N$0A@@1@@Z ; glm::tmat4x3<double,0>::tmat4x3<double,0>
PUBLIC	??0?$tmat4x3@N$0A@@glm@@QAE@ABU?$tmat4x2@N$0A@@1@@Z ; glm::tmat4x3<double,0>::tmat4x3<double,0>
PUBLIC	??0?$tmat4x3@N$0A@@glm@@QAE@ABU?$tmat3x4@N$0A@@1@@Z ; glm::tmat4x3<double,0>::tmat4x3<double,0>
PUBLIC	?length@?$tmat4x3@N$0A@@glm@@SAHXZ		; glm::tmat4x3<double,0>::length
PUBLIC	??A?$tmat4x3@N$0A@@glm@@QAEAAU?$tvec3@N$0A@@1@H@Z ; glm::tmat4x3<double,0>::operator[]
PUBLIC	??A?$tmat4x3@N$0A@@glm@@QBEABU?$tvec3@N$0A@@1@H@Z ; glm::tmat4x3<double,0>::operator[]
PUBLIC	??4?$tmat4x3@N$0A@@glm@@QAEAAU01@ABU01@@Z	; glm::tmat4x3<double,0>::operator=
PUBLIC	??E?$tmat4x3@N$0A@@glm@@QAEAAU01@XZ		; glm::tmat4x3<double,0>::operator++
PUBLIC	??F?$tmat4x3@N$0A@@glm@@QAEAAU01@XZ		; glm::tmat4x3<double,0>::operator--
PUBLIC	??E?$tmat4x3@N$0A@@glm@@QAE?AU01@H@Z		; glm::tmat4x3<double,0>::operator++
PUBLIC	??F?$tmat4x3@N$0A@@glm@@QAE?AU01@H@Z		; glm::tmat4x3<double,0>::operator--
PUBLIC	??0?$tmat4x4@M$01@glm@@QAE@XZ			; glm::tmat4x4<float,2>::tmat4x4<float,2>
PUBLIC	??0?$tmat4x4@M$01@glm@@QAE@ABU01@@Z		; glm::tmat4x4<float,2>::tmat4x4<float,2>
PUBLIC	??0?$tmat4x4@M$01@glm@@QAE@W4ctor@1@@Z		; glm::tmat4x4<float,2>::tmat4x4<float,2>
PUBLIC	??0?$tmat4x4@M$01@glm@@QAE@ABM@Z		; glm::tmat4x4<float,2>::tmat4x4<float,2>
PUBLIC	??0?$tmat4x4@M$01@glm@@QAE@ABM000000000000000@Z	; glm::tmat4x4<float,2>::tmat4x4<float,2>
PUBLIC	??0?$tmat4x4@M$01@glm@@QAE@ABU?$tvec4@M$01@1@000@Z ; glm::tmat4x4<float,2>::tmat4x4<float,2>
PUBLIC	??0?$tmat4x4@M$01@glm@@QAE@ABU?$tmat2x2@M$01@1@@Z ; glm::tmat4x4<float,2>::tmat4x4<float,2>
PUBLIC	??0?$tmat4x4@M$01@glm@@QAE@ABU?$tmat3x3@M$01@1@@Z ; glm::tmat4x4<float,2>::tmat4x4<float,2>
PUBLIC	??0?$tmat4x4@M$01@glm@@QAE@ABU?$tmat2x3@M$01@1@@Z ; glm::tmat4x4<float,2>::tmat4x4<float,2>
PUBLIC	??0?$tmat4x4@M$01@glm@@QAE@ABU?$tmat3x2@M$01@1@@Z ; glm::tmat4x4<float,2>::tmat4x4<float,2>
PUBLIC	??0?$tmat4x4@M$01@glm@@QAE@ABU?$tmat2x4@M$01@1@@Z ; glm::tmat4x4<float,2>::tmat4x4<float,2>
PUBLIC	??0?$tmat4x4@M$01@glm@@QAE@ABU?$tmat4x2@M$01@1@@Z ; glm::tmat4x4<float,2>::tmat4x4<float,2>
PUBLIC	??0?$tmat4x4@M$01@glm@@QAE@ABU?$tmat3x4@M$01@1@@Z ; glm::tmat4x4<float,2>::tmat4x4<float,2>
PUBLIC	??0?$tmat4x4@M$01@glm@@QAE@ABU?$tmat4x3@M$01@1@@Z ; glm::tmat4x4<float,2>::tmat4x4<float,2>
